
bootrom.bin:     file format binary


Disassembly of section .data:

00000000 <.data>:
       0:	1f00      	subs	r0, r0, #4
       2:	2004      	movs	r0, #4
       4:	00eb      	lsls	r3, r5, #3
       6:	0000      	movs	r0, r0
       8:	0035      	movs	r5, r6
       a:	0000      	movs	r0, r0
       c:	0031      	movs	r1, r6
       e:	0000      	movs	r0, r0
      10:	754d      	strb	r5, [r1, #21]
      12:	0301      	lsls	r1, r0, #12
      14:	007a      	lsls	r2, r7, #1
      16:	00c4      	lsls	r4, r0, #3
      18:	001d      	movs	r5, r3
      1a:	0000      	movs	r0, r0
      1c:	2300      	movs	r3, #0
      1e:	8802      	ldrh	r2, [r0, #0]
      20:	429a      	cmp	r2, r3
      22:	d003      	beq.n	0x2c
      24:	8843      	ldrh	r3, [r0, #2]
      26:	3004      	adds	r0, #4
      28:	4291      	cmp	r1, r2
      2a:	d1f7      	bne.n	0x1c
      2c:	1c18      	adds	r0, r3, #0
      2e:	4770      	bx	lr
      30:	bf30      	wfi
      32:	e7fd      	b.n	0x30
      34:	46f4      	mov	ip, lr
      36:	f000 f805 	bl	0x44
      3a:	48a7      	ldr	r0, [pc, #668]	; (0x2d8)
      3c:	2100      	movs	r1, #0
      3e:	6001      	str	r1, [r0, #0]
      40:	6041      	str	r1, [r0, #4]
      42:	46e7      	mov	pc, ip
      44:	48a5      	ldr	r0, [pc, #660]	; (0x2dc)
      46:	2100      	movs	r1, #0
      48:	43c9      	mvns	r1, r1
      4a:	6001      	str	r1, [r0, #0]
      4c:	6041      	str	r1, [r0, #4]
      4e:	4770      	bx	lr
      50:	9bca      	ldr	r3, [sp, #808]	; 0x328
      52:	5b0d      	ldrh	r5, [r1, r4]
      54:	1df9      	adds	r1, r7, #7
      56:	0000      	movs	r0, r0
      58:	4328      	orrs	r0, r5
      5a:	2029      	movs	r0, #41	; 0x29
      5c:	3032      	adds	r0, #50	; 0x32
      5e:	3032      	adds	r0, #50	; 0x32
      60:	5220      	strh	r0, [r4, r0]
      62:	7361      	strb	r1, [r4, #13]
      64:	6270      	str	r0, [r6, #36]	; 0x24
      66:	7265      	strb	r5, [r4, #9]
      68:	7972      	ldrb	r2, [r6, #5]
      6a:	5020      	str	r0, [r4, r0]
      6c:	2069      	movs	r0, #105	; 0x69
      6e:	7254      	strb	r4, [r2, #9]
      70:	6461      	str	r1, [r4, #68]	; 0x44
      72:	6e69      	ldr	r1, [r5, #100]	; 0x64
      74:	2067      	movs	r0, #103	; 0x67
      76:	744c      	strb	r4, [r1, #17]
      78:	0064      	lsls	r4, r4, #1
      7a:	3350      	adds	r3, #80	; 0x50
      7c:	0309      	lsls	r1, r1, #12
      7e:	3352      	adds	r3, #82	; 0x52
      80:	032d      	lsls	r5, r5, #12
      82:	334c      	adds	r3, #76	; 0x4c
      84:	0357      	lsls	r7, r2, #13
      86:	3354      	adds	r3, #84	; 0x54
      88:	038f      	lsls	r7, r1, #14
      8a:	534d      	strh	r5, [r1, r5]
      8c:	26b9      	movs	r6, #185	; 0xb9
      8e:	3453      	adds	r4, #83	; 0x53
      90:	26ad      	movs	r6, #173	; 0xad
      92:	434d      	muls	r5, r1
      94:	261d      	movs	r6, #29
      96:	3443      	adds	r4, #67	; 0x43
      98:	2605      	movs	r6, #5
      9a:	4255      	negs	r5, r2
      9c:	2591      	movs	r5, #145	; 0x91
      9e:	5444      	strb	r4, [r0, r1]
      a0:	01a9      	lsls	r1, r5, #6
      a2:	4544      	cmp	r4, r8
      a4:	01af      	lsls	r7, r5, #6
      a6:	5657      	ldrsb	r7, [r2, r1]
      a8:	0145      	lsls	r5, r0, #5
      aa:	4649      	mov	r1, r9
      ac:	2491      	movs	r4, #145	; 0x91
      ae:	5845      	ldr	r5, [r0, r1]
      b0:	23e5      	movs	r3, #229	; 0xe5
      b2:	4552      	cmp	r2, sl
      b4:	236d      	movs	r3, #109	; 0x6d
      b6:	5052      	str	r2, [r2, r1]
      b8:	23b5      	movs	r3, #181	; 0xb5
      ba:	4346      	muls	r6, r0
      bc:	2351      	movs	r3, #81	; 0x51
      be:	5843      	ldr	r3, [r0, r1]
      c0:	2321      	movs	r3, #33	; 0x21
      c2:	0000      	movs	r0, r0
      c4:	5247      	strh	r7, [r0, r1]
      c6:	0050      	lsls	r0, r2, #1
      c8:	5243      	strh	r3, [r0, r1]
      ca:	0058      	lsls	r0, r3, #1
      cc:	4653      	mov	r3, sl
      ce:	01cc      	lsls	r4, r1, #7
      d0:	4453      	add	r3, sl
      d2:	024c      	lsls	r4, r1, #9
      d4:	5a46      	ldrh	r6, [r0, r1]
      d6:	01ca      	lsls	r2, r1, #7
      d8:	5346      	strh	r6, [r0, r5]
      da:	2734      	movs	r7, #52	; 0x34
      dc:	4546      	cmp	r6, r8
      de:	2e28      	cmp	r6, #40	; 0x28
      e0:	5344      	strh	r4, [r0, r5]
      e2:	2e30      	cmp	r6, #48	; 0x30
      e4:	4544      	cmp	r4, r8
      e6:	3da4      	subs	r5, #164	; 0xa4
      e8:	0000      	movs	r0, r0
      ea:	487d      	ldr	r0, [pc, #500]	; (0x2e0)
      ec:	6801      	ldr	r1, [r0, #0]
      ee:	2900      	cmp	r1, #0
      f0:	d128      	bne.n	0x144
      f2:	f7ff ff9f 	bl	0x34
      f6:	497b      	ldr	r1, [pc, #492]	; (0x2e4)
      f8:	680a      	ldr	r2, [r1, #0]
      fa:	0e53      	lsrs	r3, r2, #25
      fc:	d301      	bcc.n	0x102
      fe:	600a      	str	r2, [r1, #0]
     100:	e796      	b.n	0x30
     102:	2080      	movs	r0, #128	; 0x80
     104:	0040      	lsls	r0, r0, #1
     106:	f000 f848 	bl	0x19a
     10a:	4977      	ldr	r1, [pc, #476]	; (0x2e8)
     10c:	2240      	movs	r2, #64	; 0x40
     10e:	66ca      	str	r2, [r1, #108]	; 0x6c
     110:	670a      	str	r2, [r1, #112]	; 0x70
     112:	674a      	str	r2, [r1, #116]	; 0x74
     114:	678a      	str	r2, [r1, #120]	; 0x78
     116:	4f75      	ldr	r7, [pc, #468]	; (0x2ec)
     118:	4e75      	ldr	r6, [pc, #468]	; (0x2f0)
     11a:	cf0f      	ldmia	r7!, {r0, r1, r2, r3}
     11c:	42b0      	cmp	r0, r6
     11e:	d107      	bne.n	0x130
     120:	4059      	eors	r1, r3
     122:	1840      	adds	r0, r0, r1
     124:	d104      	bne.n	0x130
     126:	3f10      	subs	r7, #16
     128:	6038      	str	r0, [r7, #0]
     12a:	f382 8808 	msr	MSP, r2
     12e:	4798      	blx	r3
     130:	f002 f9ce 	bl	0x24d0
     134:	bf20      	wfe
     136:	6d21      	ldr	r1, [r4, #80]	; 0x50
     138:	0889      	lsrs	r1, r1, #2
     13a:	d3fb      	bcc.n	0x134
     13c:	6560      	str	r0, [r4, #84]	; 0x54
     13e:	bf40      	sev
     140:	1c6e      	adds	r6, r5, #1
     142:	4730      	bx	r6
     144:	4c66      	ldr	r4, [pc, #408]	; (0x2e0)
     146:	4f6b      	ldr	r7, [pc, #428]	; (0x2f4)
     148:	2104      	movs	r1, #4
     14a:	6139      	str	r1, [r7, #16]
     14c:	6da1      	ldr	r1, [r4, #88]	; 0x58
     14e:	6d21      	ldr	r1, [r4, #80]	; 0x50
     150:	0849      	lsrs	r1, r1, #1
     152:	d2fb      	bcs.n	0x14c
     154:	a50a      	add	r5, pc, #40	; (adr r5, 0x180)
     156:	2000      	movs	r0, #0
     158:	f7ff ffed 	bl	0x136
     15c:	2801      	cmp	r0, #1
     15e:	d1f6      	bne.n	0x14e
     160:	f7ff ffe9 	bl	0x136
     164:	60b8      	str	r0, [r7, #8]
     166:	f7ff ffe6 	bl	0x136
     16a:	f380 8808 	msr	MSP, r0
     16e:	f7ff ffe2 	bl	0x136
     172:	a501      	add	r5, pc, #4	; (adr r5, 0x178)
     174:	f7ff ffdf 	bl	0x136
     178:	2100      	movs	r1, #0
     17a:	6139      	str	r1, [r7, #16]
     17c:	4780      	blx	r0
     17e:	e757      	b.n	0x30
     180:	bf20      	wfe
     182:	6d20      	ldr	r0, [r4, #80]	; 0x50
     184:	0840      	lsrs	r0, r0, #1
     186:	d3fb      	bcc.n	0x180
     188:	6da0      	ldr	r0, [r4, #88]	; 0x58
     18a:	2800      	cmp	r0, #0
     18c:	d0df      	beq.n	0x14e
     18e:	4770      	bx	lr
     190:	4959      	ldr	r1, [pc, #356]	; (0x2f8)
     192:	6008      	str	r0, [r1, #0]
     194:	4770      	bx	lr
     196:	4958      	ldr	r1, [pc, #352]	; (0x2f8)
     198:	6008      	str	r0, [r1, #0]
     19a:	4958      	ldr	r1, [pc, #352]	; (0x2fc)
     19c:	4a58      	ldr	r2, [pc, #352]	; (0x300)
     19e:	6010      	str	r0, [r2, #0]
     1a0:	688a      	ldr	r2, [r1, #8]
     1a2:	4390      	bics	r0, r2
     1a4:	d1fc      	bne.n	0x1a0
     1a6:	4770      	bx	lr
     1a8:	2601      	movs	r6, #1
     1aa:	4337      	orrs	r7, r6
     1ac:	47b8      	blx	r7
     1ae:	be00      	bkpt	0x0000
     1b0:	e7fa      	b.n	0x1a8
     1b2:	3811      	subs	r0, #17
     1b4:	7ac0      	ldrb	r0, [r0, #11]
     1b6:	bd00      	pop	{pc}
     1b8:	b500      	push	{lr}
     1ba:	4042      	eors	r2, r0
     1bc:	2a00      	cmp	r2, #0
     1be:	f000 f802 	bl	0x1c6
     1c2:	d2f6      	bcs.n	0x1b2
     1c4:	468e      	mov	lr, r1
     1c6:	4670      	mov	r0, lr
     1c8:	4700      	bx	r0
     1ca:	0020      	movs	r0, r4
     1cc:	2b45      	cmp	r3, #69	; 0x45
     1ce:	0000      	movs	r0, r0
     1d0:	2b41      	cmp	r3, #65	; 0x41
     1d2:	0000      	movs	r0, r0
     1d4:	2c0d      	cmp	r4, #13
     1d6:	0000      	movs	r0, r0
     1d8:	2cd9      	cmp	r4, #217	; 0xd9
     1da:	0000      	movs	r0, r0
     1dc:	2803      	cmp	r0, #3
     1de:	0000      	movs	r0, r0
     1e0:	2803      	cmp	r0, #3
     1e2:	0000      	movs	r0, r0
     1e4:	2d8d      	cmp	r5, #141	; 0x8d
     1e6:	0000      	movs	r0, r0
     1e8:	2829      	cmp	r0, #41	; 0x29
     1ea:	0000      	movs	r0, r0
     1ec:	282b      	cmp	r0, #43	; 0x2b
     1ee:	0000      	movs	r0, r0
     1f0:	285d      	cmp	r0, #93	; 0x5d
     1f2:	0000      	movs	r0, r0
     1f4:	285f      	cmp	r0, #95	; 0x5f
     1f6:	0000      	movs	r0, r0
     1f8:	28b3      	cmp	r0, #179	; 0xb3
     1fa:	0000      	movs	r0, r0
     1fc:	28b5      	cmp	r0, #181	; 0xb5
     1fe:	0000      	movs	r0, r0
     200:	28c3      	cmp	r0, #195	; 0xc3
     202:	0000      	movs	r0, r0
     204:	28c5      	cmp	r0, #197	; 0xc5
     206:	0000      	movs	r0, r0
     208:	299b      	cmp	r1, #155	; 0x9b
     20a:	0000      	movs	r0, r0
     20c:	2951      	cmp	r1, #81	; 0x51
     20e:	0000      	movs	r0, r0
     210:	29b9      	cmp	r1, #185	; 0xb9
     212:	0000      	movs	r0, r0
     214:	2951      	cmp	r1, #81	; 0x51
     216:	0000      	movs	r0, r0
     218:	29c1      	cmp	r1, #193	; 0xc1
     21a:	0000      	movs	r0, r0
     21c:	2a2b      	cmp	r2, #43	; 0x2b
     21e:	0000      	movs	r0, r0
     220:	27e7      	movs	r7, #231	; 0xe7
     222:	0000      	movs	r0, r0
     224:	2a4f      	cmp	r2, #79	; 0x4f
     226:	0000      	movs	r0, r0
     228:	288b      	cmp	r0, #139	; 0x8b
     22a:	0000      	movs	r0, r0
     22c:	288d      	cmp	r0, #141	; 0x8d
     22e:	0000      	movs	r0, r0
     230:	2879      	cmp	r0, #121	; 0x79
     232:	0000      	movs	r0, r0
     234:	287b      	cmp	r0, #123	; 0x7b
     236:	0000      	movs	r0, r0
     238:	355d      	adds	r5, #93	; 0x5d
     23a:	0000      	movs	r0, r0
     23c:	355f      	adds	r5, #95	; 0x5f
     23e:	0000      	movs	r0, r0
     240:	3567      	adds	r5, #103	; 0x67
     242:	0000      	movs	r0, r0
     244:	3569      	adds	r5, #105	; 0x69
     246:	0000      	movs	r0, r0
     248:	3619      	adds	r6, #25
     24a:	0000      	movs	r0, r0
     24c:	2e3d      	cmp	r6, #61	; 0x3d
     24e:	0000      	movs	r0, r0
     250:	2e31      	cmp	r6, #49	; 0x31
     252:	0000      	movs	r0, r0
     254:	2f99      	cmp	r7, #153	; 0x99
     256:	0000      	movs	r0, r0
     258:	30f5      	adds	r0, #245	; 0xf5
     25a:	0000      	movs	r0, r0
     25c:	3447      	adds	r4, #71	; 0x47
     25e:	0000      	movs	r0, r0
     260:	3447      	adds	r4, #71	; 0x47
     262:	0000      	movs	r0, r0
     264:	32b9      	adds	r2, #185	; 0xb9
     266:	0000      	movs	r0, r0
     268:	3541      	adds	r5, #65	; 0x41
     26a:	0000      	movs	r0, r0
     26c:	3543      	adds	r5, #67	; 0x43
     26e:	0000      	movs	r0, r0
     270:	354f      	adds	r5, #79	; 0x4f
     272:	0000      	movs	r0, r0
     274:	3551      	adds	r5, #81	; 0x51
     276:	0000      	movs	r0, r0
     278:	369f      	adds	r6, #159	; 0x9f
     27a:	0000      	movs	r0, r0
     27c:	36a1      	adds	r6, #161	; 0xa1
     27e:	0000      	movs	r0, r0
     280:	3697      	adds	r6, #151	; 0x97
     282:	0000      	movs	r0, r0
     284:	3699      	adds	r6, #153	; 0x99
     286:	0000      	movs	r0, r0
     288:	380d      	subs	r0, #13
     28a:	0000      	movs	r0, r0
     28c:	381d      	subs	r0, #29
     28e:	0000      	movs	r0, r0
     290:	37ed      	adds	r7, #237	; 0xed
     292:	0000      	movs	r0, r0
     294:	3831      	subs	r0, #49	; 0x31
     296:	0000      	movs	r0, r0
     298:	3b3d      	subs	r3, #61	; 0x3d
     29a:	0000      	movs	r0, r0
     29c:	3bd9      	subs	r3, #217	; 0xd9
     29e:	0000      	movs	r0, r0
     2a0:	344b      	adds	r4, #75	; 0x4b
     2a2:	0000      	movs	r0, r0
     2a4:	3929      	subs	r1, #41	; 0x29
     2a6:	0000      	movs	r0, r0
     2a8:	36ad      	adds	r6, #173	; 0xad
     2aa:	0000      	movs	r0, r0
     2ac:	36af      	adds	r6, #175	; 0xaf
     2ae:	0000      	movs	r0, r0
     2b0:	36a7      	adds	r6, #167	; 0xa7
     2b2:	0000      	movs	r0, r0
     2b4:	36a9      	adds	r6, #169	; 0xa9
     2b6:	0000      	movs	r0, r0
     2b8:	359d      	adds	r5, #157	; 0x9d
     2ba:	0000      	movs	r0, r0
     2bc:	359f      	adds	r5, #159	; 0x9f
     2be:	0000      	movs	r0, r0
     2c0:	35b7      	adds	r5, #183	; 0xb7
     2c2:	0000      	movs	r0, r0
     2c4:	35b9      	adds	r5, #185	; 0xb9
     2c6:	0000      	movs	r0, r0
     2c8:	363f      	adds	r6, #63	; 0x3f
     2ca:	0000      	movs	r0, r0
     2cc:	480d      	ldr	r0, [pc, #52]	; (0x304)
     2ce:	f380 8808 	msr	MSP, r0
     2d2:	f001 ff01 	bl	0x20d8
     2d6:	0000      	movs	r0, r0
     2d8:	4000      	ands	r0, r0
     2da:	4000      	ands	r0, r0
     2dc:	80a0      	strh	r0, [r4, #4]
     2de:	4000      	ands	r0, r0
     2e0:	0000      	movs	r0, r0
     2e2:	d000      	beq.n	0x2e6
     2e4:	4008      	ands	r0, r1
     2e6:	4006      	ands	r6, r0
     2e8:	f000 4001 	and.w	r0, r0, #2164260864	; 0x81000000
     2ec:	801c      	strh	r4, [r3, #0]
     2ee:	4005      	ands	r5, r0
     2f0:	c0d3      	stmia	r0!, {r0, r1, r4, r6, r7}
     2f2:	b007      	add	sp, #28
     2f4:	ed00 e000 	stc	0, cr14, [r0, #-0]
     2f8:	e000      	b.n	0x2fc
     2fa:	4000      	ands	r0, r0
     2fc:	c000      	stmia	r0!, {}
     2fe:	4000      	ands	r0, r0
     300:	f000 4000 	and.w	r0, r0, #2147483648	; 0x80000000
     304:	08b0      	lsrs	r0, r6, #2
     306:	5010      	str	r0, [r2, r0]
     308:	4933      	ldr	r1, [pc, #204]	; (0x3d8)
     30a:	0842      	lsrs	r2, r0, #1
     30c:	400a      	ands	r2, r1
     30e:	0883      	lsrs	r3, r0, #2
     310:	400b      	ands	r3, r1
     312:	4008      	ands	r0, r1
     314:	1880      	adds	r0, r0, r2
     316:	18c0      	adds	r0, r0, r3
     318:	08c1      	lsrs	r1, r0, #3
     31a:	1840      	adds	r0, r0, r1
     31c:	492f      	ldr	r1, [pc, #188]	; (0x3dc)
     31e:	4008      	ands	r0, r1
     320:	0981      	lsrs	r1, r0, #6
     322:	1840      	adds	r0, r0, r1
     324:	492e      	ldr	r1, [pc, #184]	; (0x3e0)
     326:	4348      	muls	r0, r1
     328:	0e80      	lsrs	r0, r0, #26
     32a:	4770      	bx	lr
     32c:	4a2d      	ldr	r2, [pc, #180]	; (0x3e4)
     32e:	0851      	lsrs	r1, r2, #1
     330:	4051      	eors	r1, r2
     332:	0043      	lsls	r3, r0, #1
     334:	400b      	ands	r3, r1
     336:	4008      	ands	r0, r1
     338:	0840      	lsrs	r0, r0, #1
     33a:	4318      	orrs	r0, r3
     33c:	0083      	lsls	r3, r0, #2
     33e:	4013      	ands	r3, r2
     340:	4010      	ands	r0, r2
     342:	0880      	lsrs	r0, r0, #2
     344:	4303      	orrs	r3, r0
     346:	4a28      	ldr	r2, [pc, #160]	; (0x3e8)
     348:	0118      	lsls	r0, r3, #4
     34a:	4010      	ands	r0, r2
     34c:	4013      	ands	r3, r2
     34e:	091b      	lsrs	r3, r3, #4
     350:	4318      	orrs	r0, r3
     352:	ba00      	rev	r0, r0
     354:	4770      	bx	lr
     356:	a325      	add	r3, pc, #148	; (adr r3, 0x3ec)
     358:	0c01      	lsrs	r1, r0, #16
     35a:	d10c      	bne.n	0x376
     35c:	0a81      	lsrs	r1, r0, #10
     35e:	d104      	bne.n	0x36a
     360:	0901      	lsrs	r1, r0, #4
     362:	d105      	bne.n	0x370
     364:	5c18      	ldrb	r0, [r3, r0]
     366:	301a      	adds	r0, #26
     368:	4770      	bx	lr
     36a:	5c58      	ldrb	r0, [r3, r1]
     36c:	3010      	adds	r0, #16
     36e:	4770      	bx	lr
     370:	5c58      	ldrb	r0, [r3, r1]
     372:	3016      	adds	r0, #22
     374:	4770      	bx	lr
     376:	0a88      	lsrs	r0, r1, #10
     378:	d104      	bne.n	0x384
     37a:	0908      	lsrs	r0, r1, #4
     37c:	d104      	bne.n	0x388
     37e:	5c58      	ldrb	r0, [r3, r1]
     380:	300a      	adds	r0, #10
     382:	4770      	bx	lr
     384:	5c18      	ldrb	r0, [r3, r0]
     386:	4770      	bx	lr
     388:	5c18      	ldrb	r0, [r3, r0]
     38a:	3006      	adds	r0, #6
     38c:	4770      	bx	lr
     38e:	a327      	add	r3, pc, #156	; (adr r3, 0x42c)
     390:	0401      	lsls	r1, r0, #16
     392:	d00f      	beq.n	0x3b4
     394:	0188      	lsls	r0, r1, #6
     396:	d005      	beq.n	0x3a4
     398:	0181      	lsls	r1, r0, #6
     39a:	d007      	beq.n	0x3ac
     39c:	0f09      	lsrs	r1, r1, #28
     39e:	3110      	adds	r1, #16
     3a0:	5c58      	ldrb	r0, [r3, r1]
     3a2:	4770      	bx	lr
     3a4:	0e89      	lsrs	r1, r1, #26
     3a6:	5c58      	ldrb	r0, [r3, r1]
     3a8:	300a      	adds	r0, #10
     3aa:	4770      	bx	lr
     3ac:	0e80      	lsrs	r0, r0, #26
     3ae:	5c18      	ldrb	r0, [r3, r0]
     3b0:	3004      	adds	r0, #4
     3b2:	4770      	bx	lr
     3b4:	0181      	lsls	r1, r0, #6
     3b6:	d006      	beq.n	0x3c6
     3b8:	0188      	lsls	r0, r1, #6
     3ba:	d008      	beq.n	0x3ce
     3bc:	0f00      	lsrs	r0, r0, #28
     3be:	3010      	adds	r0, #16
     3c0:	5c18      	ldrb	r0, [r3, r0]
     3c2:	3010      	adds	r0, #16
     3c4:	4770      	bx	lr
     3c6:	0e80      	lsrs	r0, r0, #26
     3c8:	5c18      	ldrb	r0, [r3, r0]
     3ca:	301a      	adds	r0, #26
     3cc:	4770      	bx	lr
     3ce:	0e89      	lsrs	r1, r1, #26
     3d0:	5c58      	ldrb	r0, [r3, r1]
     3d2:	3014      	adds	r0, #20
     3d4:	4770      	bx	lr
     3d6:	0000      	movs	r0, r0
     3d8:	9249      	str	r2, [sp, #292]	; 0x124
     3da:	4924      	ldr	r1, [pc, #144]	; (0x46c)
     3dc:	71c7      	strb	r7, [r0, #7]
     3de:	c71c      	stmia	r7!, {r2, r3, r4}
     3e0:	4004      	ands	r4, r0
     3e2:	0400      	lsls	r0, r0, #16
     3e4:	cccc      	ldmia	r4!, {r2, r3, r6, r7}
     3e6:	cccc      	ldmia	r4!, {r2, r3, r6, r7}
     3e8:	f0f0 f0f0 	bl	0x4f05cc
     3ec:	0506      	lsls	r6, r0, #20
     3ee:	0404      	lsls	r4, r0, #16
     3f0:	0303      	lsls	r3, r0, #12
     3f2:	0303      	lsls	r3, r0, #12
     3f4:	0202      	lsls	r2, r0, #8
     3f6:	0202      	lsls	r2, r0, #8
     3f8:	0202      	lsls	r2, r0, #8
     3fa:	0202      	lsls	r2, r0, #8
     3fc:	0101      	lsls	r1, r0, #4
     3fe:	0101      	lsls	r1, r0, #4
     400:	0101      	lsls	r1, r0, #4
     402:	0101      	lsls	r1, r0, #4
     404:	0101      	lsls	r1, r0, #4
     406:	0101      	lsls	r1, r0, #4
     408:	0101      	lsls	r1, r0, #4
     40a:	0101      	lsls	r1, r0, #4
	...
     42c:	0006      	movs	r6, r0
     42e:	0001      	movs	r1, r0
     430:	0002      	movs	r2, r0
     432:	0001      	movs	r1, r0
     434:	0003      	movs	r3, r0
     436:	0001      	movs	r1, r0
     438:	0002      	movs	r2, r0
     43a:	0001      	movs	r1, r0
     43c:	0004      	movs	r4, r0
     43e:	0001      	movs	r1, r0
     440:	0002      	movs	r2, r0
     442:	0001      	movs	r1, r0
     444:	0003      	movs	r3, r0
     446:	0001      	movs	r1, r0
     448:	0002      	movs	r2, r0
     44a:	0001      	movs	r1, r0
     44c:	0005      	movs	r5, r0
     44e:	0001      	movs	r1, r0
     450:	0002      	movs	r2, r0
     452:	0001      	movs	r1, r0
     454:	0003      	movs	r3, r0
     456:	0001      	movs	r1, r0
     458:	0002      	movs	r2, r0
     45a:	0001      	movs	r1, r0
     45c:	0004      	movs	r4, r0
     45e:	0001      	movs	r1, r0
     460:	0002      	movs	r2, r0
     462:	0001      	movs	r1, r0
     464:	0003      	movs	r3, r0
     466:	0001      	movs	r1, r0
     468:	0002      	movs	r2, r0
     46a:	0001      	movs	r1, r0
     46c:	0031      	movs	r1, r6
     46e:	20d1      	movs	r0, #209	; 0xd1
     470:	2159      	movs	r1, #89	; 0x59
     472:	1c39      	adds	r1, r7, #0
     474:	1b99      	subs	r1, r3, r6
     476:	1dbd      	adds	r5, r7, #6
     478:	22ed      	movs	r2, #237	; 0xed
     47a:	be00      	bkpt	0x0000
     47c:	4a02      	ldr	r2, [pc, #8]	; (0x488)
     47e:	6893      	ldr	r3, [r2, #8]
     480:	3b40      	subs	r3, #64	; 0x40
     482:	6093      	str	r3, [r2, #8]
     484:	4770      	bx	lr
     486:	46c0      	nop			; (mov r8, r8)
     488:	0a7c      	lsrs	r4, r7, #9
     48a:	5010      	str	r0, [r2, r0]
     48c:	4a02      	ldr	r2, [pc, #8]	; (0x498)
     48e:	7d93      	ldrb	r3, [r2, #22]
     490:	7513      	strb	r3, [r2, #20]
     492:	4a02      	ldr	r2, [pc, #8]	; (0x49c)
     494:	6013      	str	r3, [r2, #0]
     496:	4770      	bx	lr
     498:	09ec      	lsrs	r4, r5, #7
     49a:	5010      	str	r0, [r2, r0]
     49c:	0000      	movs	r0, r0
     49e:	5011      	str	r1, [r2, r0]
     4a0:	2300      	movs	r3, #0
     4a2:	6001      	str	r1, [r0, #0]
     4a4:	6103      	str	r3, [r0, #16]
     4a6:	6042      	str	r2, [r0, #4]
     4a8:	784b      	ldrb	r3, [r1, #1]
     4aa:	60c3      	str	r3, [r0, #12]
     4ac:	6083      	str	r3, [r0, #8]
     4ae:	4770      	bx	lr
     4b0:	4904      	ldr	r1, [pc, #16]	; (0x4c4)
     4b2:	6883      	ldr	r3, [r0, #8]
     4b4:	2201      	movs	r2, #1
     4b6:	741a      	strb	r2, [r3, #16]
     4b8:	681b      	ldr	r3, [r3, #0]
     4ba:	781b      	ldrb	r3, [r3, #0]
     4bc:	5acb      	ldrh	r3, [r1, r3]
     4be:	4313      	orrs	r3, r2
     4c0:	4718      	bx	r3
     4c2:	0000      	movs	r0, r0
     4c4:	046c      	lsls	r4, r5, #17
     4c6:	0000      	movs	r0, r0
     4c8:	6803      	ldr	r3, [r0, #0]
     4ca:	b570      	push	{r4, r5, r6, lr}
     4cc:	1e19      	subs	r1, r3, #0
     4ce:	d002      	beq.n	0x4d6
     4d0:	7899      	ldrb	r1, [r3, #2]
     4d2:	230f      	movs	r3, #15
     4d4:	4019      	ands	r1, r3
     4d6:	2400      	movs	r4, #0
     4d8:	2500      	movs	r5, #0
     4da:	4a12      	ldr	r2, [pc, #72]	; (0x524)
     4dc:	00cb      	lsls	r3, r1, #3
     4de:	189a      	adds	r2, r3, r2
     4e0:	6014      	str	r4, [r2, #0]
     4e2:	6055      	str	r5, [r2, #4]
     4e4:	0004      	movs	r4, r0
     4e6:	4e10      	ldr	r6, [pc, #64]	; (0x528)
     4e8:	3428      	adds	r4, #40	; 0x28
     4ea:	8b32      	ldrh	r2, [r6, #24]
     4ec:	8282      	strh	r2, [r0, #20]
     4ee:	7825      	ldrb	r5, [r4, #0]
     4f0:	2440      	movs	r4, #64	; 0x40
     4f2:	2d00      	cmp	r5, #0
     4f4:	d000      	beq.n	0x4f8
     4f6:	1924      	adds	r4, r4, r4
     4f8:	1914      	adds	r4, r2, r4
     4fa:	8334      	strh	r4, [r6, #24]
     4fc:	2900      	cmp	r1, #0
     4fe:	d00e      	beq.n	0x51e
     500:	2154      	movs	r1, #84	; 0x54
     502:	2d00      	cmp	r5, #0
     504:	d000      	beq.n	0x508
     506:	3120      	adds	r1, #32
     508:	0649      	lsls	r1, r1, #25
     50a:	3029      	adds	r0, #41	; 0x29
     50c:	1852      	adds	r2, r2, r1
     50e:	7801      	ldrb	r1, [r0, #0]
     510:	4806      	ldr	r0, [pc, #24]	; (0x52c)
     512:	181b      	adds	r3, r3, r0
     514:	2900      	cmp	r1, #0
     516:	d003      	beq.n	0x520
     518:	601a      	str	r2, [r3, #0]
     51a:	2200      	movs	r2, #0
     51c:	605a      	str	r2, [r3, #4]
     51e:	bd70      	pop	{r4, r5, r6, pc}
     520:	6019      	str	r1, [r3, #0]
     522:	e7fb      	b.n	0x51c
     524:	0080      	lsls	r0, r0, #2
     526:	5010      	str	r0, [r2, r0]
     528:	09ec      	lsrs	r4, r5, #7
     52a:	5010      	str	r0, [r2, r0]
     52c:	0000      	movs	r0, r0
     52e:	5010      	str	r0, [r2, r0]
     530:	b530      	push	{r4, r5, lr}
     532:	1c45      	adds	r5, r0, #1
     534:	b2c9      	uxtb	r1, r1
     536:	77e9      	strb	r1, [r5, #31]
     538:	3528      	adds	r5, #40	; 0x28
     53a:	702a      	strb	r2, [r5, #0]
     53c:	82c3      	strh	r3, [r0, #22]
     53e:	0003      	movs	r3, r0
     540:	ac03      	add	r4, sp, #12
     542:	7824      	ldrb	r4, [r4, #0]
     544:	3328      	adds	r3, #40	; 0x28
     546:	701c      	strb	r4, [r3, #0]
     548:	2301      	movs	r3, #1
     54a:	0049      	lsls	r1, r1, #1
     54c:	405a      	eors	r2, r3
     54e:	1889      	adds	r1, r1, r2
     550:	1cc3      	adds	r3, r0, #3
     552:	77d9      	strb	r1, [r3, #31]
     554:	bd30      	pop	{r4, r5, pc}
     556:	be00      	bkpt	0x0000
     558:	0013      	movs	r3, r2
     55a:	b5f0      	push	{r4, r5, r6, r7, lr}
     55c:	0006      	movs	r6, r0
     55e:	000c      	movs	r4, r1
     560:	0015      	movs	r5, r2
     562:	b085      	sub	sp, #20
     564:	3308      	adds	r3, #8
     566:	6001      	str	r1, [r0, #0]
     568:	9303      	str	r3, [sp, #12]
     56a:	7823      	ldrb	r3, [r4, #0]
     56c:	18e4      	adds	r4, r4, r3
     56e:	7863      	ldrb	r3, [r4, #1]
     570:	2b05      	cmp	r3, #5
     572:	d1fa      	bne.n	0x56a
     574:	7963      	ldrb	r3, [r4, #5]
     576:	7921      	ldrb	r1, [r4, #4]
     578:	021b      	lsls	r3, r3, #8
     57a:	430b      	orrs	r3, r1
     57c:	270f      	movs	r7, #15
     57e:	2101      	movs	r1, #1
     580:	78a2      	ldrb	r2, [r4, #2]
     582:	9100      	str	r1, [sp, #0]
     584:	4017      	ands	r7, r2
     586:	0039      	movs	r1, r7
     588:	6828      	ldr	r0, [r5, #0]
     58a:	09d2      	lsrs	r2, r2, #7
     58c:	f7ff ffd0 	bl	0x530
     590:	cd08      	ldmia	r5!, {r3}
     592:	4a05      	ldr	r2, [pc, #20]	; (0x5a8)
     594:	00bf      	lsls	r7, r7, #2
     596:	601c      	str	r4, [r3, #0]
     598:	50bb      	str	r3, [r7, r2]
     59a:	9b03      	ldr	r3, [sp, #12]
     59c:	42ab      	cmp	r3, r5
     59e:	d1e4      	bne.n	0x56a
     5a0:	0030      	movs	r0, r6
     5a2:	b005      	add	sp, #20
     5a4:	bdf0      	pop	{r4, r5, r6, r7, pc}
     5a6:	46c0      	nop			; (mov r8, r8)
     5a8:	0a08      	lsrs	r0, r1, #8
     5aa:	5010      	str	r0, [r2, r0]
     5ac:	1c43      	adds	r3, r0, #1
     5ae:	7fdb      	ldrb	r3, [r3, #31]
     5b0:	3029      	adds	r0, #41	; 0x29
     5b2:	7802      	ldrb	r2, [r0, #0]
     5b4:	4903      	ldr	r1, [pc, #12]	; (0x5c4)
     5b6:	00db      	lsls	r3, r3, #3
     5b8:	1858      	adds	r0, r3, r1
     5ba:	2a00      	cmp	r2, #0
     5bc:	d001      	beq.n	0x5c2
     5be:	4a02      	ldr	r2, [pc, #8]	; (0x5c8)
     5c0:	1898      	adds	r0, r3, r2
     5c2:	4770      	bx	lr
     5c4:	0084      	lsls	r4, r0, #2
     5c6:	5010      	str	r0, [r2, r0]
     5c8:	0080      	lsls	r0, r0, #2
     5ca:	5010      	str	r0, [r2, r0]
     5cc:	b570      	push	{r4, r5, r6, lr}
     5ce:	0006      	movs	r6, r0
     5d0:	7f83      	ldrb	r3, [r0, #30]
     5d2:	0004      	movs	r4, r0
     5d4:	3618      	adds	r6, #24
     5d6:	2b00      	cmp	r3, #0
     5d8:	d11f      	bne.n	0x61a
     5da:	8ac3      	ldrh	r3, [r0, #22]
     5dc:	7743      	strb	r3, [r0, #29]
     5de:	0003      	movs	r3, r0
     5e0:	3329      	adds	r3, #41	; 0x29
     5e2:	7819      	ldrb	r1, [r3, #0]
     5e4:	1d43      	adds	r3, r0, #5
     5e6:	2900      	cmp	r1, #0
     5e8:	d100      	bne.n	0x5ec
     5ea:	1d83      	adds	r3, r0, #6
     5ec:	7fdd      	ldrb	r5, [r3, #31]
     5ee:	8aa3      	ldrh	r3, [r4, #20]
     5f0:	002a      	movs	r2, r5
     5f2:	1e50      	subs	r0, r2, #1
     5f4:	4182      	sbcs	r2, r0
     5f6:	480a      	ldr	r0, [pc, #40]	; (0x620)
     5f8:	0192      	lsls	r2, r2, #6
     5fa:	181b      	adds	r3, r3, r0
     5fc:	189b      	adds	r3, r3, r2
     5fe:	61a3      	str	r3, [r4, #24]
     600:	2300      	movs	r3, #0
     602:	4299      	cmp	r1, r3
     604:	d106      	bne.n	0x614
     606:	0020      	movs	r0, r4
     608:	f7ff ffd0 	bl	0x5ac
     60c:	006d      	lsls	r5, r5, #1
     60e:	1945      	adds	r5, r0, r5
     610:	882b      	ldrh	r3, [r5, #0]
     612:	b2db      	uxtb	r3, r3
     614:	7723      	strb	r3, [r4, #28]
     616:	2301      	movs	r3, #1
     618:	77a3      	strb	r3, [r4, #30]
     61a:	0030      	movs	r0, r6
     61c:	bd70      	pop	{r4, r5, r6, pc}
     61e:	46c0      	nop			; (mov r8, r8)
     620:	0000      	movs	r0, r0
     622:	5010      	str	r0, [r2, r0]
     624:	2200      	movs	r2, #0
     626:	b570      	push	{r4, r5, r6, lr}
     628:	1dc3      	adds	r3, r0, #7
     62a:	77da      	strb	r2, [r3, #31]
     62c:	3301      	adds	r3, #1
     62e:	0004      	movs	r4, r0
     630:	7fd8      	ldrb	r0, [r3, #31]
     632:	4290      	cmp	r0, r2
     634:	d12f      	bne.n	0x696
     636:	2380      	movs	r3, #128	; 0x80
     638:	00db      	lsls	r3, r3, #3
     63a:	4319      	orrs	r1, r3
     63c:	0023      	movs	r3, r4
     63e:	3329      	adds	r3, #41	; 0x29
     640:	781b      	ldrb	r3, [r3, #0]
     642:	2b00      	cmp	r3, #0
     644:	d002      	beq.n	0x64c
     646:	2380      	movs	r3, #128	; 0x80
     648:	021b      	lsls	r3, r3, #8
     64a:	4319      	orrs	r1, r3
     64c:	1ca2      	adds	r2, r4, #2
     64e:	7fd3      	ldrb	r3, [r2, #31]
     650:	2601      	movs	r6, #1
     652:	001d      	movs	r5, r3
     654:	1e68      	subs	r0, r5, #1
     656:	4185      	sbcs	r5, r0
     658:	4073      	eors	r3, r6
     65a:	77d3      	strb	r3, [r2, #31]
     65c:	0020      	movs	r0, r4
     65e:	036d      	lsls	r5, r5, #13
     660:	430d      	orrs	r5, r1
     662:	f7ff ffa3 	bl	0x5ac
     666:	1d63      	adds	r3, r4, #5
     668:	7fda      	ldrb	r2, [r3, #31]
     66a:	b2ad      	uxth	r5, r5
     66c:	40b2      	lsls	r2, r6
     66e:	1880      	adds	r0, r0, r2
     670:	2200      	movs	r2, #0
     672:	8005      	strh	r5, [r0, #0]
     674:	1d21      	adds	r1, r4, #4
     676:	77a2      	strb	r2, [r4, #30]
     678:	7fca      	ldrb	r2, [r1, #31]
     67a:	3a01      	subs	r2, #1
     67c:	77ca      	strb	r2, [r1, #31]
     67e:	68a1      	ldr	r1, [r4, #8]
     680:	3428      	adds	r4, #40	; 0x28
     682:	688a      	ldr	r2, [r1, #8]
     684:	3a01      	subs	r2, #1
     686:	608a      	str	r2, [r1, #8]
     688:	7822      	ldrb	r2, [r4, #0]
     68a:	2a00      	cmp	r2, #0
     68c:	d002      	beq.n	0x694
     68e:	7fda      	ldrb	r2, [r3, #31]
     690:	4056      	eors	r6, r2
     692:	77de      	strb	r6, [r3, #31]
     694:	bd70      	pop	{r4, r5, r6, pc}
     696:	20a0      	movs	r0, #160	; 0xa0
     698:	0140      	lsls	r0, r0, #5
     69a:	4301      	orrs	r1, r0
     69c:	77da      	strb	r2, [r3, #31]
     69e:	e7cd      	b.n	0x63c
     6a0:	b570      	push	{r4, r5, r6, lr}
     6a2:	0004      	movs	r4, r0
     6a4:	68a3      	ldr	r3, [r4, #8]
     6a6:	2b00      	cmp	r3, #0
     6a8:	d015      	beq.n	0x6d6
     6aa:	689b      	ldr	r3, [r3, #8]
     6ac:	2b00      	cmp	r3, #0
     6ae:	d012      	beq.n	0x6d6
     6b0:	1d26      	adds	r6, r4, #4
     6b2:	7ff5      	ldrb	r5, [r6, #31]
     6b4:	2d00      	cmp	r5, #0
     6b6:	d00e      	beq.n	0x6d6
     6b8:	1de3      	adds	r3, r4, #7
     6ba:	7fdb      	ldrb	r3, [r3, #31]
     6bc:	2b00      	cmp	r3, #0
     6be:	d10a      	bne.n	0x6d6
     6c0:	0023      	movs	r3, r4
     6c2:	3329      	adds	r3, #41	; 0x29
     6c4:	781b      	ldrb	r3, [r3, #0]
     6c6:	2b00      	cmp	r3, #0
     6c8:	d006      	beq.n	0x6d8
     6ca:	0020      	movs	r0, r4
     6cc:	f7ff fef0 	bl	0x4b0
     6d0:	7ff3      	ldrb	r3, [r6, #31]
     6d2:	42ab      	cmp	r3, r5
     6d4:	d1e6      	bne.n	0x6a4
     6d6:	bd70      	pop	{r4, r5, r6, pc}
     6d8:	0020      	movs	r0, r4
     6da:	8ae1      	ldrh	r1, [r4, #22]
     6dc:	f7ff ffa2 	bl	0x624
     6e0:	e7e0      	b.n	0x6a4
     6e2:	b570      	push	{r4, r5, r6, lr}
     6e4:	000d      	movs	r5, r1
     6e6:	0004      	movs	r4, r0
     6e8:	0011      	movs	r1, r2
     6ea:	0028      	movs	r0, r5
     6ec:	001a      	movs	r2, r3
     6ee:	f7ff fed7 	bl	0x4a0
     6f2:	2300      	movs	r3, #0
     6f4:	60e3      	str	r3, [r4, #12]
     6f6:	3301      	adds	r3, #1
     6f8:	60a5      	str	r5, [r4, #8]
     6fa:	0020      	movs	r0, r4
     6fc:	74ab      	strb	r3, [r5, #18]
     6fe:	f7ff ffcf 	bl	0x6a0
     702:	bd70      	pop	{r4, r5, r6, pc}
     704:	b510      	push	{r4, lr}
     706:	0003      	movs	r3, r0
     708:	4a02      	ldr	r2, [pc, #8]	; (0x714)
     70a:	4903      	ldr	r1, [pc, #12]	; (0x718)
     70c:	4803      	ldr	r0, [pc, #12]	; (0x71c)
     70e:	f7ff ffe8 	bl	0x6e2
     712:	bd10      	pop	{r4, pc}
     714:	3f55      	subs	r7, #85	; 0x55
     716:	0000      	movs	r0, r0
     718:	0a24      	lsrs	r4, r4, #8
     71a:	5010      	str	r0, [r2, r0]
     71c:	0dc0      	lsrs	r0, r0, #23
     71e:	5010      	str	r0, [r2, r0]
     720:	6841      	ldr	r1, [r0, #4]
     722:	6883      	ldr	r3, [r0, #8]
     724:	b510      	push	{r4, lr}
     726:	428b      	cmp	r3, r1
     728:	d003      	beq.n	0x732
     72a:	2300      	movs	r3, #0
     72c:	680a      	ldr	r2, [r1, #0]
     72e:	f7ff ffd8 	bl	0x6e2
     732:	bd10      	pop	{r4, pc}
     734:	0003      	movs	r3, r0
     736:	b510      	push	{r4, lr}
     738:	3333      	adds	r3, #51	; 0x33
     73a:	7fdb      	ldrb	r3, [r3, #31]
     73c:	302c      	adds	r0, #44	; 0x2c
     73e:	2b00      	cmp	r3, #0
     740:	d101      	bne.n	0x746
     742:	f7ff ffed 	bl	0x720
     746:	bd10      	pop	{r4, pc}
     748:	0003      	movs	r3, r0
     74a:	b570      	push	{r4, r5, r6, lr}
     74c:	3329      	adds	r3, #41	; 0x29
     74e:	781b      	ldrb	r3, [r3, #0]
     750:	0004      	movs	r4, r0
     752:	000d      	movs	r5, r1
     754:	0016      	movs	r6, r2
     756:	2b00      	cmp	r3, #0
     758:	d003      	beq.n	0x762
     75a:	f7ff ff37 	bl	0x5cc
     75e:	2300      	movs	r3, #0
     760:	7103      	strb	r3, [r0, #4]
     762:	0033      	movs	r3, r6
     764:	0029      	movs	r1, r5
     766:	0020      	movs	r0, r4
     768:	4a01      	ldr	r2, [pc, #4]	; (0x770)
     76a:	f7ff ffba 	bl	0x6e2
     76e:	bd70      	pop	{r4, r5, r6, pc}
     770:	3f55      	subs	r7, #85	; 0x55
     772:	0000      	movs	r0, r0
     774:	b510      	push	{r4, lr}
     776:	2200      	movs	r2, #0
     778:	4902      	ldr	r1, [pc, #8]	; (0x784)
     77a:	4803      	ldr	r0, [pc, #12]	; (0x788)
     77c:	f7ff ffe4 	bl	0x748
     780:	bd10      	pop	{r4, pc}
     782:	46c0      	nop			; (mov r8, r8)
     784:	09c4      	lsrs	r4, r0, #7
     786:	5010      	str	r0, [r2, r0]
     788:	0f68      	lsrs	r0, r5, #29
     78a:	5010      	str	r0, [r2, r0]
     78c:	b510      	push	{r4, lr}
     78e:	2200      	movs	r2, #0
     790:	4902      	ldr	r1, [pc, #8]	; (0x79c)
     792:	4803      	ldr	r0, [pc, #12]	; (0x7a0)
     794:	f7ff ffd8 	bl	0x748
     798:	bd10      	pop	{r4, pc}
     79a:	46c0      	nop			; (mov r8, r8)
     79c:	09d8      	lsrs	r0, r3, #7
     79e:	5010      	str	r0, [r2, r0]
     7a0:	0f94      	lsrs	r4, r2, #30
     7a2:	5010      	str	r0, [r2, r0]
     7a4:	b510      	push	{r4, lr}
     7a6:	4b03      	ldr	r3, [pc, #12]	; (0x7b4)
     7a8:	4a03      	ldr	r2, [pc, #12]	; (0x7b8)
     7aa:	4904      	ldr	r1, [pc, #16]	; (0x7bc)
     7ac:	4804      	ldr	r0, [pc, #16]	; (0x7c0)
     7ae:	f7ff ff98 	bl	0x6e2
     7b2:	bd10      	pop	{r4, pc}
     7b4:	078d      	lsls	r5, r1, #30
     7b6:	0000      	movs	r0, r0
     7b8:	3f55      	subs	r7, #85	; 0x55
     7ba:	0000      	movs	r0, r0
     7bc:	09c4      	lsrs	r4, r0, #7
     7be:	5010      	str	r0, [r2, r0]
     7c0:	0f68      	lsrs	r0, r5, #29
     7c2:	5010      	str	r0, [r2, r0]
     7c4:	b510      	push	{r4, lr}
     7c6:	1dc3      	adds	r3, r0, #7
     7c8:	7fda      	ldrb	r2, [r3, #31]
     7ca:	6881      	ldr	r1, [r0, #8]
     7cc:	2a00      	cmp	r2, #0
     7ce:	d105      	bne.n	0x7dc
     7d0:	68cb      	ldr	r3, [r1, #12]
     7d2:	2b00      	cmp	r3, #0
     7d4:	d10a      	bne.n	0x7ec
     7d6:	7c0b      	ldrb	r3, [r1, #16]
     7d8:	2b00      	cmp	r3, #0
     7da:	d107      	bne.n	0x7ec
     7dc:	2401      	movs	r4, #1
     7de:	2300      	movs	r3, #0
     7e0:	74cc      	strb	r4, [r1, #19]
     7e2:	6083      	str	r3, [r0, #8]
     7e4:	429a      	cmp	r2, r3
     7e6:	d002      	beq.n	0x7ee
     7e8:	60cb      	str	r3, [r1, #12]
     7ea:	608b      	str	r3, [r1, #8]
     7ec:	bd10      	pop	{r4, pc}
     7ee:	684b      	ldr	r3, [r1, #4]
     7f0:	2b00      	cmp	r3, #0
     7f2:	d001      	beq.n	0x7f8
     7f4:	4798      	blx	r3
     7f6:	e7f9      	b.n	0x7ec
     7f8:	68c3      	ldr	r3, [r0, #12]
     7fa:	2b00      	cmp	r3, #0
     7fc:	d0f6      	beq.n	0x7ec
     7fe:	6083      	str	r3, [r0, #8]
     800:	60c2      	str	r2, [r0, #12]
     802:	749c      	strb	r4, [r3, #18]
     804:	f7ff ff4c 	bl	0x6a0
     808:	e7f0      	b.n	0x7ec
     80a:	be00      	bkpt	0x0000
     80c:	b570      	push	{r4, r5, r6, lr}
     80e:	1dc6      	adds	r6, r0, #7
     810:	7ff3      	ldrb	r3, [r6, #31]
     812:	0004      	movs	r4, r0
     814:	000d      	movs	r5, r1
     816:	2b00      	cmp	r3, #0
     818:	d11a      	bne.n	0x850
     81a:	1c43      	adds	r3, r0, #1
     81c:	7fdb      	ldrb	r3, [r3, #31]
     81e:	2b00      	cmp	r3, #0
     820:	d107      	bne.n	0x832
     822:	0003      	movs	r3, r0
     824:	3329      	adds	r3, #41	; 0x29
     826:	781b      	ldrb	r3, [r3, #0]
     828:	425a      	negs	r2, r3
     82a:	4153      	adcs	r3, r2
     82c:	4a0a      	ldr	r2, [pc, #40]	; (0x858)
     82e:	3301      	adds	r3, #1
     830:	6693      	str	r3, [r2, #104]	; 0x68
     832:	0020      	movs	r0, r4
     834:	f7ff feba 	bl	0x5ac
     838:	2380      	movs	r3, #128	; 0x80
     83a:	6802      	ldr	r2, [r0, #0]
     83c:	011b      	lsls	r3, r3, #4
     83e:	4313      	orrs	r3, r2
     840:	6003      	str	r3, [r0, #0]
     842:	77f5      	strb	r5, [r6, #31]
     844:	6923      	ldr	r3, [r4, #16]
     846:	2b00      	cmp	r3, #0
     848:	d001      	beq.n	0x84e
     84a:	0020      	movs	r0, r4
     84c:	4798      	blx	r3
     84e:	bd70      	pop	{r4, r5, r6, pc}
     850:	428b      	cmp	r3, r1
     852:	d2fc      	bcs.n	0x84e
     854:	77f1      	strb	r1, [r6, #31]
     856:	e7fa      	b.n	0x84e
     858:	2000      	movs	r0, #0
     85a:	5011      	str	r1, [r2, r0]
     85c:	b570      	push	{r4, r5, r6, lr}
     85e:	2800      	cmp	r0, #0
     860:	d00e      	beq.n	0x880
     862:	4b18      	ldr	r3, [pc, #96]	; (0x8c4)
     864:	0080      	lsls	r0, r0, #2
     866:	58c4      	ldr	r4, [r0, r3]
     868:	1d21      	adds	r1, r4, #4
     86a:	7fcb      	ldrb	r3, [r1, #31]
     86c:	3301      	adds	r3, #1
     86e:	77cb      	strb	r3, [r1, #31]
     870:	68a5      	ldr	r5, [r4, #8]
     872:	2d00      	cmp	r5, #0
     874:	d109      	bne.n	0x88a
     876:	2102      	movs	r1, #2
     878:	0020      	movs	r0, r4
     87a:	f7ff ffc7 	bl	0x80c
     87e:	bd70      	pop	{r4, r5, r6, pc}
     880:	4c11      	ldr	r4, [pc, #68]	; (0x8c8)
     882:	2900      	cmp	r1, #0
     884:	d1f0      	bne.n	0x868
     886:	4c11      	ldr	r4, [pc, #68]	; (0x8cc)
     888:	e7ee      	b.n	0x868
     88a:	7c2b      	ldrb	r3, [r5, #16]
     88c:	2b00      	cmp	r3, #0
     88e:	d002      	beq.n	0x896
     890:	2301      	movs	r3, #1
     892:	746b      	strb	r3, [r5, #17]
     894:	e7f3      	b.n	0x87e
     896:	1da3      	adds	r3, r4, #6
     898:	77da      	strb	r2, [r3, #31]
     89a:	3323      	adds	r3, #35	; 0x23
     89c:	781b      	ldrb	r3, [r3, #0]
     89e:	2b00      	cmp	r3, #0
     8a0:	d002      	beq.n	0x8a8
     8a2:	68ab      	ldr	r3, [r5, #8]
     8a4:	2b00      	cmp	r3, #0
     8a6:	d002      	beq.n	0x8ae
     8a8:	0020      	movs	r0, r4
     8aa:	f7ff fe01 	bl	0x4b0
     8ae:	7ceb      	ldrb	r3, [r5, #19]
     8b0:	2b00      	cmp	r3, #0
     8b2:	d1e4      	bne.n	0x87e
     8b4:	68eb      	ldr	r3, [r5, #12]
     8b6:	0020      	movs	r0, r4
     8b8:	3b01      	subs	r3, #1
     8ba:	60eb      	str	r3, [r5, #12]
     8bc:	f7ff ff82 	bl	0x7c4
     8c0:	e7dd      	b.n	0x87e
     8c2:	46c0      	nop			; (mov r8, r8)
     8c4:	0a08      	lsrs	r0, r1, #8
     8c6:	5010      	str	r0, [r2, r0]
     8c8:	0f68      	lsrs	r0, r5, #29
     8ca:	5010      	str	r0, [r2, r0]
     8cc:	0f94      	lsrs	r4, r2, #30
     8ce:	5010      	str	r0, [r2, r0]
     8d0:	2300      	movs	r3, #0
     8d2:	b570      	push	{r4, r5, r6, lr}
     8d4:	6885      	ldr	r5, [r0, #8]
     8d6:	0004      	movs	r4, r0
     8d8:	742b      	strb	r3, [r5, #16]
     8da:	f7ff ff73 	bl	0x7c4
     8de:	7ceb      	ldrb	r3, [r5, #19]
     8e0:	2b00      	cmp	r3, #0
     8e2:	d11b      	bne.n	0x91c
     8e4:	0026      	movs	r6, r4
     8e6:	3629      	adds	r6, #41	; 0x29
     8e8:	7833      	ldrb	r3, [r6, #0]
     8ea:	2b00      	cmp	r3, #0
     8ec:	d003      	beq.n	0x8f6
     8ee:	0020      	movs	r0, r4
     8f0:	7f21      	ldrb	r1, [r4, #28]
     8f2:	f7ff fe97 	bl	0x624
     8f6:	2300      	movs	r3, #0
     8f8:	77a3      	strb	r3, [r4, #30]
     8fa:	7c6a      	ldrb	r2, [r5, #17]
     8fc:	429a      	cmp	r2, r3
     8fe:	d00e      	beq.n	0x91e
     900:	746b      	strb	r3, [r5, #17]
     902:	1d22      	adds	r2, r4, #4
     904:	7fd3      	ldrb	r3, [r2, #31]
     906:	3b01      	subs	r3, #1
     908:	77d3      	strb	r3, [r2, #31]
     90a:	2201      	movs	r2, #1
     90c:	1da3      	adds	r3, r4, #6
     90e:	7fdb      	ldrb	r3, [r3, #31]
     910:	3401      	adds	r4, #1
     912:	7831      	ldrb	r1, [r6, #0]
     914:	7fe0      	ldrb	r0, [r4, #31]
     916:	405a      	eors	r2, r3
     918:	f7ff ffa0 	bl	0x85c
     91c:	bd70      	pop	{r4, r5, r6, pc}
     91e:	0020      	movs	r0, r4
     920:	f7ff febe 	bl	0x6a0
     924:	e7fa      	b.n	0x91c
     926:	be00      	bkpt	0x0000
     928:	b570      	push	{r4, r5, r6, lr}
     92a:	2501      	movs	r5, #1
     92c:	0004      	movs	r4, r0
     92e:	1cc3      	adds	r3, r0, #3
     930:	7fdb      	ldrb	r3, [r3, #31]
     932:	0026      	movs	r6, r4
     934:	409d      	lsls	r5, r3
     936:	f7ff fe39 	bl	0x5ac
     93a:	4b17      	ldr	r3, [pc, #92]	; (0x998)
     93c:	6802      	ldr	r2, [r0, #0]
     93e:	3628      	adds	r6, #40	; 0x28
     940:	421a      	tst	r2, r3
     942:	d016      	beq.n	0x972
     944:	7833      	ldrb	r3, [r6, #0]
     946:	2b00      	cmp	r3, #0
     948:	d003      	beq.n	0x952
     94a:	1d23      	adds	r3, r4, #4
     94c:	7fdb      	ldrb	r3, [r3, #31]
     94e:	2b01      	cmp	r3, #1
     950:	d104      	bne.n	0x95c
     952:	2301      	movs	r3, #1
     954:	1ca2      	adds	r2, r4, #2
     956:	7fd1      	ldrb	r1, [r2, #31]
     958:	404b      	eors	r3, r1
     95a:	77d3      	strb	r3, [r2, #31]
     95c:	4b0f      	ldr	r3, [pc, #60]	; (0x99c)
     95e:	4a10      	ldr	r2, [pc, #64]	; (0x9a0)
     960:	661d      	str	r5, [r3, #96]	; 0x60
     962:	2380      	movs	r3, #128	; 0x80
     964:	025b      	lsls	r3, r3, #9
     966:	6e51      	ldr	r1, [r2, #100]	; 0x64
     968:	420d      	tst	r5, r1
     96a:	d102      	bne.n	0x972
     96c:	3b01      	subs	r3, #1
     96e:	2b00      	cmp	r3, #0
     970:	d1f9      	bne.n	0x966
     972:	0020      	movs	r0, r4
     974:	f7ff fe1a 	bl	0x5ac
     978:	2200      	movs	r2, #0
     97a:	4b0a      	ldr	r3, [pc, #40]	; (0x9a4)
     97c:	6002      	str	r2, [r0, #0]
     97e:	661d      	str	r5, [r3, #96]	; 0x60
     980:	665d      	str	r5, [r3, #100]	; 0x64
     982:	7833      	ldrb	r3, [r6, #0]
     984:	1e59      	subs	r1, r3, #1
     986:	418b      	sbcs	r3, r1
     988:	1d21      	adds	r1, r4, #4
     98a:	3301      	adds	r3, #1
     98c:	77cb      	strb	r3, [r1, #31]
     98e:	2301      	movs	r3, #1
     990:	84a2      	strh	r2, [r4, #36]	; 0x24
     992:	3408      	adds	r4, #8
     994:	77e3      	strb	r3, [r4, #31]
     996:	bd70      	pop	{r4, r5, r6, pc}
     998:	0400      	lsls	r0, r0, #16
     99a:	0400      	lsls	r0, r0, #16
     99c:	2000      	movs	r0, #0
     99e:	5011      	str	r1, [r2, r0]
     9a0:	0000      	movs	r0, r0
     9a2:	5011      	str	r1, [r2, r0]
     9a4:	3000      	adds	r0, #0
     9a6:	5011      	str	r1, [r2, r0]
     9a8:	b570      	push	{r4, r5, r6, lr}
     9aa:	4d08      	ldr	r5, [pc, #32]	; (0x9cc)
     9ac:	0028      	movs	r0, r5
     9ae:	f7ff ffbb 	bl	0x928
     9b2:	4c07      	ldr	r4, [pc, #28]	; (0x9d0)
     9b4:	0020      	movs	r0, r4
     9b6:	f7ff ffb7 	bl	0x928
     9ba:	0028      	movs	r0, r5
     9bc:	2101      	movs	r1, #1
     9be:	f7ff ff25 	bl	0x80c
     9c2:	2101      	movs	r1, #1
     9c4:	0020      	movs	r0, r4
     9c6:	f7ff ff21 	bl	0x80c
     9ca:	bd70      	pop	{r4, r5, r6, pc}
     9cc:	0f68      	lsrs	r0, r5, #29
     9ce:	5010      	str	r0, [r2, r0]
     9d0:	0f94      	lsrs	r4, r2, #30
     9d2:	5010      	str	r0, [r2, r0]
     9d4:	b570      	push	{r4, r5, r6, lr}
     9d6:	2500      	movs	r5, #0
     9d8:	6085      	str	r5, [r0, #8]
     9da:	000e      	movs	r6, r1
     9dc:	0004      	movs	r4, r0
     9de:	f7ff ffa3 	bl	0x928
     9e2:	42ae      	cmp	r6, r5
     9e4:	d001      	beq.n	0x9ea
     9e6:	1ca2      	adds	r2, r4, #2
     9e8:	77d5      	strb	r5, [r2, #31]
     9ea:	77a5      	strb	r5, [r4, #30]
     9ec:	1de2      	adds	r2, r4, #7
     9ee:	7fd1      	ldrb	r1, [r2, #31]
     9f0:	2900      	cmp	r1, #0
     9f2:	d005      	beq.n	0xa00
     9f4:	77d5      	strb	r5, [r2, #31]
     9f6:	6923      	ldr	r3, [r4, #16]
     9f8:	2b00      	cmp	r3, #0
     9fa:	d001      	beq.n	0xa00
     9fc:	0020      	movs	r0, r4
     9fe:	4798      	blx	r3
     a00:	4b07      	ldr	r3, [pc, #28]	; (0xa20)
     a02:	7d5b      	ldrb	r3, [r3, #21]
     a04:	2b00      	cmp	r3, #0
     a06:	d009      	beq.n	0xa1c
     a08:	6861      	ldr	r1, [r4, #4]
     a0a:	2900      	cmp	r1, #0
     a0c:	d006      	beq.n	0xa1c
     a0e:	68a3      	ldr	r3, [r4, #8]
     a10:	2b00      	cmp	r3, #0
     a12:	d103      	bne.n	0xa1c
     a14:	0020      	movs	r0, r4
     a16:	680a      	ldr	r2, [r1, #0]
     a18:	f7ff fe63 	bl	0x6e2
     a1c:	bd70      	pop	{r4, r5, r6, pc}
     a1e:	46c0      	nop			; (mov r8, r8)
     a20:	09ec      	lsrs	r4, r5, #7
     a22:	5010      	str	r0, [r2, r0]
     a24:	b510      	push	{r4, lr}
     a26:	4b1c      	ldr	r3, [pc, #112]	; (0xa98)
     a28:	4c1c      	ldr	r4, [pc, #112]	; (0xa9c)
     a2a:	601c      	str	r4, [r3, #0]
     a2c:	248e      	movs	r4, #142	; 0x8e
     a2e:	4b1c      	ldr	r3, [pc, #112]	; (0xaa0)
     a30:	05e4      	lsls	r4, r4, #23
     a32:	601c      	str	r4, [r3, #0]
     a34:	4b1b      	ldr	r3, [pc, #108]	; (0xaa4)
     a36:	2800      	cmp	r0, #0
     a38:	d02c      	beq.n	0xa94
     a3a:	2401      	movs	r4, #1
     a3c:	4320      	orrs	r0, r4
     a3e:	4c1a      	ldr	r4, [pc, #104]	; (0xaa8)
     a40:	61dc      	str	r4, [r3, #28]
     a42:	69dc      	ldr	r4, [r3, #28]
     a44:	4264      	negs	r4, r4
     a46:	4044      	eors	r4, r0
     a48:	621c      	str	r4, [r3, #32]
     a4a:	6259      	str	r1, [r3, #36]	; 0x24
     a4c:	6298      	str	r0, [r3, #40]	; 0x28
     a4e:	21fa      	movs	r1, #250	; 0xfa
     a50:	0089      	lsls	r1, r1, #2
     a52:	434a      	muls	r2, r1
     a54:	605a      	str	r2, [r3, #4]
     a56:	4a15      	ldr	r2, [pc, #84]	; (0xaac)
     a58:	6811      	ldr	r1, [r2, #0]
     a5a:	2202      	movs	r2, #2
     a5c:	4211      	tst	r1, r2
     a5e:	d10b      	bne.n	0xa78
     a60:	4913      	ldr	r1, [pc, #76]	; (0xab0)
     a62:	4814      	ldr	r0, [pc, #80]	; (0xab4)
     a64:	6809      	ldr	r1, [r1, #0]
     a66:	404a      	eors	r2, r1
     a68:	2103      	movs	r1, #3
     a6a:	400a      	ands	r2, r1
     a6c:	4912      	ldr	r1, [pc, #72]	; (0xab8)
     a6e:	600a      	str	r2, [r1, #0]
     a70:	2204      	movs	r2, #4
     a72:	6b81      	ldr	r1, [r0, #56]	; 0x38
     a74:	4211      	tst	r1, r2
     a76:	d0fc      	beq.n	0xa72
     a78:	220c      	movs	r2, #12
     a7a:	62da      	str	r2, [r3, #44]	; 0x2c
     a7c:	4b0f      	ldr	r3, [pc, #60]	; (0xabc)
     a7e:	32f5      	adds	r2, #245	; 0xf5
     a80:	32ff      	adds	r2, #255	; 0xff
     a82:	601a      	str	r2, [r3, #0]
     a84:	2280      	movs	r2, #128	; 0x80
     a86:	4b0e      	ldr	r3, [pc, #56]	; (0xac0)
     a88:	05d2      	lsls	r2, r2, #23
     a8a:	601a      	str	r2, [r3, #0]
     a8c:	2201      	movs	r2, #1
     a8e:	4b0d      	ldr	r3, [pc, #52]	; (0xac4)
     a90:	701a      	strb	r2, [r3, #0]
     a92:	bd10      	pop	{r4, pc}
     a94:	61d8      	str	r0, [r3, #28]
     a96:	e7da      	b.n	0xa4e
     a98:	0008      	movs	r0, r1
     a9a:	4001      	ands	r1, r0
     a9c:	fffc 0001 	vrev64.<illegal width 64>	d16, d1
     aa0:	b000      	add	sp, #0
     aa2:	4005      	ands	r5, r0
     aa4:	8000      	strh	r0, [r0, #0]
     aa6:	4005      	ands	r5, r0
     aa8:	c0d3      	stmia	r0!, {r0, r1, r4, r6, r7}
     aaa:	b007      	add	sp, #28
     aac:	c000      	stmia	r0!, {}
     aae:	4006      	ands	r6, r0
     ab0:	8030      	strh	r0, [r6, #0]
     ab2:	4000      	ands	r0, r0
     ab4:	8000      	strh	r0, [r0, #0]
     ab6:	4000      	ands	r0, r0
     ab8:	9030      	str	r0, [sp, #192]	; 0xc0
     aba:	4000      	ands	r0, r0
     abc:	a02c      	add	r0, pc, #176	; (adr r0, 0xb70)
     abe:	4005      	ands	r5, r0
     ac0:	a000      	add	r0, pc, #0	; (adr r0, 0xac4)
     ac2:	4005      	ands	r5, r0
     ac4:	0eb4      	lsrs	r4, r6, #26
     ac6:	5010      	str	r0, [r2, r0]
     ac8:	b570      	push	{r4, r5, r6, lr}
     aca:	0004      	movs	r4, r0
     acc:	1845      	adds	r5, r0, r1
     ace:	2000      	movs	r0, #0
     ad0:	42ac      	cmp	r4, r5
     ad2:	d201      	bcs.n	0xad8
     ad4:	2800      	cmp	r0, #0
     ad6:	d000      	beq.n	0xada
     ad8:	bd70      	pop	{r4, r5, r6, pc}
     ada:	4b04      	ldr	r3, [pc, #16]	; (0xaec)
     adc:	0020      	movs	r0, r4
     ade:	681b      	ldr	r3, [r3, #0]
     ae0:	68db      	ldr	r3, [r3, #12]
     ae2:	4798      	blx	r3
     ae4:	2380      	movs	r3, #128	; 0x80
     ae6:	015b      	lsls	r3, r3, #5
     ae8:	18e4      	adds	r4, r4, r3
     aea:	e7f1      	b.n	0xad0
     aec:	0dbc      	lsrs	r4, r7, #22
     aee:	5010      	str	r0, [r2, r0]
     af0:	22e0      	movs	r2, #224	; 0xe0
     af2:	0612      	lsls	r2, r2, #24
     af4:	1881      	adds	r1, r0, r2
     af6:	2284      	movs	r2, #132	; 0x84
     af8:	0003      	movs	r3, r0
     afa:	02d2      	lsls	r2, r2, #11
     afc:	2001      	movs	r0, #1
     afe:	4291      	cmp	r1, r2
     b00:	d907      	bls.n	0xb12
     b02:	22eb      	movs	r2, #235	; 0xeb
     b04:	0612      	lsls	r2, r2, #24
     b06:	189b      	adds	r3, r3, r2
     b08:	2280      	movs	r2, #128	; 0x80
     b0a:	2000      	movs	r0, #0
     b0c:	01d2      	lsls	r2, r2, #7
     b0e:	429a      	cmp	r2, r3
     b10:	4140      	adcs	r0, r0
     b12:	4770      	bx	lr
     b14:	b530      	push	{r4, r5, lr}
     b16:	1d85      	adds	r5, r0, #6
     b18:	0f0c      	lsrs	r4, r1, #28
     b1a:	b2e2      	uxtb	r2, r4
     b1c:	0013      	movs	r3, r2
     b1e:	3337      	adds	r3, #55	; 0x37
     b20:	2c09      	cmp	r4, #9
     b22:	d800      	bhi.n	0xb26
     b24:	3b07      	subs	r3, #7
     b26:	7003      	strb	r3, [r0, #0]
     b28:	3001      	adds	r0, #1
     b2a:	0109      	lsls	r1, r1, #4
     b2c:	42a8      	cmp	r0, r5
     b2e:	d1f3      	bne.n	0xb18
     b30:	bd30      	pop	{r4, r5, pc}
     b32:	be00      	bkpt	0x0000
     b34:	2200      	movs	r2, #0
     b36:	b510      	push	{r4, lr}
     b38:	4b05      	ldr	r3, [pc, #20]	; (0xb50)
     b3a:	4806      	ldr	r0, [pc, #24]	; (0xb54)
     b3c:	725a      	strb	r2, [r3, #9]
     b3e:	7a1b      	ldrb	r3, [r3, #8]
     b40:	2b7f      	cmp	r3, #127	; 0x7f
     b42:	d800      	bhi.n	0xb46
     b44:	4804      	ldr	r0, [pc, #16]	; (0xb58)
     b46:	4a05      	ldr	r2, [pc, #20]	; (0xb5c)
     b48:	4905      	ldr	r1, [pc, #20]	; (0xb60)
     b4a:	f7ff fdfd 	bl	0x748
     b4e:	bd10      	pop	{r4, pc}
     b50:	0ab8      	lsrs	r0, r7, #10
     b52:	5010      	str	r0, [r2, r0]
     b54:	0e58      	lsrs	r0, r3, #25
     b56:	5010      	str	r0, [r2, r0]
     b58:	0e24      	lsrs	r4, r4, #24
     b5a:	5010      	str	r0, [r2, r0]
     b5c:	0b7d      	lsrs	r5, r7, #13
     b5e:	0000      	movs	r0, r0
     b60:	08b0      	lsrs	r0, r6, #2
     b62:	5010      	str	r0, [r2, r0]
     b64:	4b04      	ldr	r3, [pc, #16]	; (0xb78)
     b66:	6a02      	ldr	r2, [r0, #32]
     b68:	6cdb      	ldr	r3, [r3, #76]	; 0x4c
     b6a:	b510      	push	{r4, lr}
     b6c:	429a      	cmp	r2, r3
     b6e:	d101      	bne.n	0xb74
     b70:	f7ff ffe0 	bl	0xb34
     b74:	bd10      	pop	{r4, pc}
     b76:	46c0      	nop			; (mov r8, r8)
     b78:	0ac8      	lsrs	r0, r1, #11
     b7a:	5010      	str	r0, [r2, r0]
     b7c:	b510      	push	{r4, lr}
     b7e:	4804      	ldr	r0, [pc, #16]	; (0xb90)
     b80:	1dc3      	adds	r3, r0, #7
     b82:	7fdb      	ldrb	r3, [r3, #31]
     b84:	2b00      	cmp	r3, #0
     b86:	d101      	bne.n	0xb8c
     b88:	f7ff fdca 	bl	0x720
     b8c:	bd10      	pop	{r4, pc}
     b8e:	46c0      	nop			; (mov r8, r8)
     b90:	0e58      	lsrs	r0, r3, #25
     b92:	5010      	str	r0, [r2, r0]
     b94:	2803      	cmp	r0, #3
     b96:	d900      	bls.n	0xb9a
     b98:	2000      	movs	r0, #0
     b9a:	4b02      	ldr	r3, [pc, #8]	; (0xba4)
     b9c:	0080      	lsls	r0, r0, #2
     b9e:	58c0      	ldr	r0, [r0, r3]
     ba0:	4770      	bx	lr
     ba2:	46c0      	nop			; (mov r8, r8)
     ba4:	3ee0      	subs	r6, #224	; 0xe0
     ba6:	0000      	movs	r0, r0
     ba8:	4b02      	ldr	r3, [pc, #8]	; (0xbb4)
     baa:	0200      	lsls	r0, r0, #8
     bac:	6018      	str	r0, [r3, #0]
     bae:	681b      	ldr	r3, [r3, #0]
     bb0:	4770      	bx	lr
     bb2:	46c0      	nop			; (mov r8, r8)
     bb4:	800c      	strh	r4, [r1, #0]
     bb6:	4001      	ands	r1, r0
     bb8:	b570      	push	{r4, r5, r6, lr}
     bba:	0004      	movs	r4, r0
     bbc:	2002      	movs	r0, #2
     bbe:	000d      	movs	r5, r1
     bc0:	f7ff fff2 	bl	0xba8
     bc4:	22c0      	movs	r2, #192	; 0xc0
     bc6:	2304      	movs	r3, #4
     bc8:	0621      	lsls	r1, r4, #24
     bca:	4329      	orrs	r1, r5
     bcc:	0552      	lsls	r2, r2, #21
     bce:	0e08      	lsrs	r0, r1, #24
     bd0:	3b01      	subs	r3, #1
     bd2:	6610      	str	r0, [r2, #96]	; 0x60
     bd4:	0209      	lsls	r1, r1, #8
     bd6:	2b00      	cmp	r3, #0
     bd8:	d1f9      	bne.n	0xbce
     bda:	bd70      	pop	{r4, r5, r6, pc}
     bdc:	b5f7      	push	{r0, r1, r2, r4, r5, r6, r7, lr}
     bde:	3029      	adds	r0, #41	; 0x29
     be0:	7803      	ldrb	r3, [r0, #0]
     be2:	4c7a      	ldr	r4, [pc, #488]	; (0xdcc)
     be4:	2b00      	cmp	r3, #0
     be6:	d00a      	beq.n	0xbfe
     be8:	2301      	movs	r3, #1
     bea:	6063      	str	r3, [r4, #4]
     bec:	f3ef 8510 	mrs	r5, PRIMASK
     bf0:	b672      	cpsid	i
     bf2:	0020      	movs	r0, r4
     bf4:	68a3      	ldr	r3, [r4, #8]
     bf6:	4798      	blx	r3
     bf8:	f385 8810 	msr	PRIMASK, r5
     bfc:	bdf7      	pop	{r0, r1, r2, r4, r5, r6, r7, pc}
     bfe:	4b74      	ldr	r3, [pc, #464]	; (0xdd0)
     c00:	2007      	movs	r0, #7
     c02:	781b      	ldrb	r3, [r3, #0]
     c04:	2b00      	cmp	r3, #0
     c06:	d109      	bne.n	0xc1c
     c08:	1d63      	adds	r3, r4, #5
     c0a:	7fde      	ldrb	r6, [r3, #31]
     c0c:	7fdb      	ldrb	r3, [r3, #31]
     c0e:	b25b      	sxtb	r3, r3
     c10:	2b00      	cmp	r3, #0
     c12:	da25      	bge.n	0xc60
     c14:	68e5      	ldr	r5, [r4, #12]
     c16:	07eb      	lsls	r3, r5, #31
     c18:	d502      	bpl.n	0xc20
     c1a:	2005      	movs	r0, #5
     c1c:	6060      	str	r0, [r4, #4]
     c1e:	e7e5      	b.n	0xbec
     c20:	0028      	movs	r0, r5
     c22:	f7ff ff65 	bl	0xaf0
     c26:	2800      	cmp	r0, #0
     c28:	d101      	bne.n	0xc2e
     c2a:	2004      	movs	r0, #4
     c2c:	e7f6      	b.n	0xc1c
     c2e:	23eb      	movs	r3, #235	; 0xeb
     c30:	2780      	movs	r7, #128	; 0x80
     c32:	061b      	lsls	r3, r3, #24
     c34:	18eb      	adds	r3, r5, r3
     c36:	01ff      	lsls	r7, r7, #7
     c38:	42bb      	cmp	r3, r7
     c3a:	d9f6      	bls.n	0xc2a
     c3c:	0028      	movs	r0, r5
     c3e:	301c      	adds	r0, #28
     c40:	f7ff ff56 	bl	0xaf0
     c44:	2800      	cmp	r0, #0
     c46:	d0f0      	beq.n	0xc2a
     c48:	4b62      	ldr	r3, [pc, #392]	; (0xdd4)
     c4a:	18eb      	adds	r3, r5, r3
     c4c:	42bb      	cmp	r3, r7
     c4e:	d9ec      	bls.n	0xc2a
     c50:	221c      	movs	r2, #28
     c52:	0028      	movs	r0, r5
     c54:	4960      	ldr	r1, [pc, #384]	; (0xdd8)
     c56:	f001 fce1 	bl	0x261c
     c5a:	4b60      	ldr	r3, [pc, #384]	; (0xddc)
     c5c:	68e2      	ldr	r2, [r4, #12]
     c5e:	601a      	str	r2, [r3, #0]
     c60:	06f3      	lsls	r3, r6, #27
     c62:	d50e      	bpl.n	0xc82
     c64:	1da3      	adds	r3, r4, #6
     c66:	7fd9      	ldrb	r1, [r3, #31]
     c68:	000a      	movs	r2, r1
     c6a:	1e53      	subs	r3, r2, #1
     c6c:	419a      	sbcs	r2, r3
     c6e:	4b5c      	ldr	r3, [pc, #368]	; (0xde0)
     c70:	b2d2      	uxtb	r2, r2
     c72:	3329      	adds	r3, #41	; 0x29
     c74:	701a      	strb	r2, [r3, #0]
     c76:	2902      	cmp	r1, #2
     c78:	d103      	bne.n	0xc82
     c7a:	2201      	movs	r2, #1
     c7c:	4b59      	ldr	r3, [pc, #356]	; (0xde4)
     c7e:	3307      	adds	r3, #7
     c80:	77da      	strb	r2, [r3, #31]
     c82:	07f3      	lsls	r3, r6, #31
     c84:	d418      	bmi.n	0xcb8
     c86:	0673      	lsls	r3, r6, #25
     c88:	d41d      	bmi.n	0xcc6
     c8a:	230a      	movs	r3, #10
     c8c:	421e      	tst	r6, r3
     c8e:	d00c      	beq.n	0xcaa
     c90:	1de3      	adds	r3, r4, #7
     c92:	7fda      	ldrb	r2, [r3, #31]
     c94:	0023      	movs	r3, r4
     c96:	3308      	adds	r3, #8
     c98:	7fd9      	ldrb	r1, [r3, #31]
     c9a:	4b53      	ldr	r3, [pc, #332]	; (0xde8)
     c9c:	2900      	cmp	r1, #0
     c9e:	d003      	beq.n	0xca8
     ca0:	7819      	ldrb	r1, [r3, #0]
     ca2:	2006      	movs	r0, #6
     ca4:	4291      	cmp	r1, r2
     ca6:	d1b9      	bne.n	0xc1c
     ca8:	701a      	strb	r2, [r3, #0]
     caa:	07b3      	lsls	r3, r6, #30
     cac:	d410      	bmi.n	0xcd0
     cae:	230c      	movs	r3, #12
     cb0:	421e      	tst	r6, r3
     cb2:	d125      	bne.n	0xd00
     cb4:	2000      	movs	r0, #0
     cb6:	e7b1      	b.n	0xc1c
     cb8:	4b48      	ldr	r3, [pc, #288]	; (0xddc)
     cba:	681b      	ldr	r3, [r3, #0]
     cbc:	689b      	ldr	r3, [r3, #8]
     cbe:	4798      	blx	r3
     cc0:	2800      	cmp	r0, #0
     cc2:	d0e0      	beq.n	0xc86
     cc4:	e7aa      	b.n	0xc1c
     cc6:	2301      	movs	r3, #1
     cc8:	68e2      	ldr	r2, [r4, #12]
     cca:	4313      	orrs	r3, r2
     ccc:	4798      	blx	r3
     cce:	e7dc      	b.n	0xc8a
     cd0:	6920      	ldr	r0, [r4, #16]
     cd2:	0503      	lsls	r3, r0, #20
     cd4:	d1a1      	bne.n	0xc1a
     cd6:	6961      	ldr	r1, [r4, #20]
     cd8:	050b      	lsls	r3, r1, #20
     cda:	d19e      	bne.n	0xc1a
     cdc:	25f0      	movs	r5, #240	; 0xf0
     cde:	2280      	movs	r2, #128	; 0x80
     ce0:	062d      	lsls	r5, r5, #24
     ce2:	1943      	adds	r3, r0, r5
     ce4:	0552      	lsls	r2, r2, #21
     ce6:	4293      	cmp	r3, r2
     ce8:	d89f      	bhi.n	0xc2a
     cea:	1843      	adds	r3, r0, r1
     cec:	195b      	adds	r3, r3, r5
     cee:	4293      	cmp	r3, r2
     cf0:	d89b      	bhi.n	0xc2a
     cf2:	4b3a      	ldr	r3, [pc, #232]	; (0xddc)
     cf4:	681b      	ldr	r3, [r3, #0]
     cf6:	691b      	ldr	r3, [r3, #16]
     cf8:	4798      	blx	r3
     cfa:	2800      	cmp	r0, #0
     cfc:	d0d7      	beq.n	0xcae
     cfe:	e78d      	b.n	0xc1c
     d00:	68e5      	ldr	r5, [r4, #12]
     d02:	0028      	movs	r0, r5
     d04:	f7ff fef4 	bl	0xaf0
     d08:	2800      	cmp	r0, #0
     d0a:	d005      	beq.n	0xd18
     d0c:	69e3      	ldr	r3, [r4, #28]
     d0e:	18e8      	adds	r0, r5, r3
     d10:	f7ff feee 	bl	0xaf0
     d14:	1e07      	subs	r7, r0, #0
     d16:	d11e      	bne.n	0xd56
     d18:	0733      	lsls	r3, r6, #28
     d1a:	d40a      	bmi.n	0xd32
     d1c:	2280      	movs	r2, #128	; 0x80
     d1e:	0192      	lsls	r2, r2, #6
     d20:	4295      	cmp	r5, r2
     d22:	d206      	bcs.n	0xd32
     d24:	69e3      	ldr	r3, [r4, #28]
     d26:	18eb      	adds	r3, r5, r3
     d28:	4293      	cmp	r3, r2
     d2a:	d300      	bcc.n	0xd2e
     d2c:	e77d      	b.n	0xc2a
     d2e:	2701      	movs	r7, #1
     d30:	e011      	b.n	0xd56
     d32:	21f0      	movs	r1, #240	; 0xf0
     d34:	2280      	movs	r2, #128	; 0x80
     d36:	0609      	lsls	r1, r1, #24
     d38:	186b      	adds	r3, r5, r1
     d3a:	0552      	lsls	r2, r2, #21
     d3c:	4293      	cmp	r3, r2
     d3e:	d900      	bls.n	0xd42
     d40:	e773      	b.n	0xc2a
     d42:	69e3      	ldr	r3, [r4, #28]
     d44:	18eb      	adds	r3, r5, r3
     d46:	185b      	adds	r3, r3, r1
     d48:	4293      	cmp	r3, r2
     d4a:	d900      	bls.n	0xd4e
     d4c:	e76d      	b.n	0xc2a
     d4e:	b2ef      	uxtb	r7, r5
     d50:	2f00      	cmp	r7, #0
     d52:	d000      	beq.n	0xd56
     d54:	e761      	b.n	0xc1a
     d56:	0733      	lsls	r3, r6, #28
     d58:	d518      	bpl.n	0xd8c
     d5a:	4b20      	ldr	r3, [pc, #128]	; (0xddc)
     d5c:	69a1      	ldr	r1, [r4, #24]
     d5e:	469c      	mov	ip, r3
     d60:	681b      	ldr	r3, [r3, #0]
     d62:	2f00      	cmp	r7, #0
     d64:	d023      	beq.n	0xdae
     d66:	69e2      	ldr	r2, [r4, #28]
     d68:	9501      	str	r5, [sp, #4]
     d6a:	42ab      	cmp	r3, r5
     d6c:	d900      	bls.n	0xd70
     d6e:	9301      	str	r3, [sp, #4]
     d70:	331c      	adds	r3, #28
     d72:	18a8      	adds	r0, r5, r2
     d74:	4283      	cmp	r3, r0
     d76:	d200      	bcs.n	0xd7a
     d78:	0018      	movs	r0, r3
     d7a:	9b01      	ldr	r3, [sp, #4]
     d7c:	4283      	cmp	r3, r0
     d7e:	d202      	bcs.n	0xd86
     d80:	4660      	mov	r0, ip
     d82:	4b15      	ldr	r3, [pc, #84]	; (0xdd8)
     d84:	6003      	str	r3, [r0, #0]
     d86:	0028      	movs	r0, r5
     d88:	f001 fc48 	bl	0x261c
     d8c:	0773      	lsls	r3, r6, #29
     d8e:	d507      	bpl.n	0xda0
     d90:	68e3      	ldr	r3, [r4, #12]
     d92:	69a0      	ldr	r0, [r4, #24]
     d94:	2f00      	cmp	r7, #0
     d96:	d010      	beq.n	0xdba
     d98:	0019      	movs	r1, r3
     d9a:	69e2      	ldr	r2, [r4, #28]
     d9c:	f001 fc3e 	bl	0x261c
     da0:	06b3      	lsls	r3, r6, #26
     da2:	d587      	bpl.n	0xcb4
     da4:	4b0d      	ldr	r3, [pc, #52]	; (0xddc)
     da6:	681b      	ldr	r3, [r3, #0]
     da8:	685b      	ldr	r3, [r3, #4]
     daa:	4798      	blx	r3
     dac:	e736      	b.n	0xc1c
     dae:	0028      	movs	r0, r5
     db0:	695b      	ldr	r3, [r3, #20]
     db2:	4798      	blx	r3
     db4:	2800      	cmp	r0, #0
     db6:	d0e9      	beq.n	0xd8c
     db8:	e730      	b.n	0xc1c
     dba:	4a08      	ldr	r2, [pc, #32]	; (0xddc)
     dbc:	0001      	movs	r1, r0
     dbe:	6812      	ldr	r2, [r2, #0]
     dc0:	0018      	movs	r0, r3
     dc2:	6992      	ldr	r2, [r2, #24]
     dc4:	4790      	blx	r2
     dc6:	2800      	cmp	r0, #0
     dc8:	d0ea      	beq.n	0xda0
     dca:	e727      	b.n	0xc1c
     dcc:	0d8c      	lsrs	r4, r1, #22
     dce:	5010      	str	r0, [r2, r0]
     dd0:	0eb4      	lsrs	r4, r6, #26
     dd2:	5010      	str	r0, [r2, r0]
     dd4:	001c      	movs	r4, r3
     dd6:	eb00 3ec4 	add.w	lr, r0, r4, lsl #15
     dda:	0000      	movs	r0, r0
     ddc:	0dbc      	lsrs	r4, r7, #22
     dde:	5010      	str	r0, [r2, r0]
     de0:	0fc0      	lsrs	r0, r0, #31
     de2:	5010      	str	r0, [r2, r0]
     de4:	0a7c      	lsrs	r4, r7, #9
     de6:	5010      	str	r0, [r2, r0]
     de8:	0a1c      	lsrs	r4, r3, #8
     dea:	5010      	str	r0, [r2, r0]
     dec:	b5f8      	push	{r3, r4, r5, r6, r7, lr}
     dee:	6a46      	ldr	r6, [r0, #36]	; 0x24
     df0:	0004      	movs	r4, r0
     df2:	0033      	movs	r3, r6
     df4:	3329      	adds	r3, #41	; 0x29
     df6:	781b      	ldrb	r3, [r3, #0]
     df8:	0030      	movs	r0, r6
     dfa:	2b00      	cmp	r3, #0
     dfc:	d023      	beq.n	0xe46
     dfe:	f7ff fbe5 	bl	0x5cc
     e02:	6963      	ldr	r3, [r4, #20]
     e04:	69e2      	ldr	r2, [r4, #28]
     e06:	001f      	movs	r7, r3
     e08:	0005      	movs	r5, r0
     e0a:	69a0      	ldr	r0, [r4, #24]
     e0c:	1e51      	subs	r1, r2, #1
     e0e:	3740      	adds	r7, #64	; 0x40
     e10:	2240      	movs	r2, #64	; 0x40
     e12:	4019      	ands	r1, r3
     e14:	4287      	cmp	r7, r0
     e16:	d900      	bls.n	0xe1a
     e18:	1ac2      	subs	r2, r0, r3
     e1a:	712a      	strb	r2, [r5, #4]
     e1c:	6a23      	ldr	r3, [r4, #32]
     e1e:	6828      	ldr	r0, [r5, #0]
     e20:	1859      	adds	r1, r3, r1
     e22:	f001 fbfb 	bl	0x261c
     e26:	792b      	ldrb	r3, [r5, #4]
     e28:	6962      	ldr	r2, [r4, #20]
     e2a:	0020      	movs	r0, r4
     e2c:	18d3      	adds	r3, r2, r3
     e2e:	6163      	str	r3, [r4, #20]
     e30:	6aa3      	ldr	r3, [r4, #40]	; 0x28
     e32:	681b      	ldr	r3, [r3, #0]
     e34:	4798      	blx	r3
     e36:	4b06      	ldr	r3, [pc, #24]	; (0xe50)
     e38:	0030      	movs	r0, r6
     e3a:	681a      	ldr	r2, [r3, #0]
     e3c:	4b05      	ldr	r3, [pc, #20]	; (0xe54)
     e3e:	601a      	str	r2, [r3, #0]
     e40:	f7ff fd46 	bl	0x8d0
     e44:	bdf8      	pop	{r3, r4, r5, r6, r7, pc}
     e46:	f7ff fbc1 	bl	0x5cc
     e4a:	0005      	movs	r5, r0
     e4c:	e7eb      	b.n	0xe26
     e4e:	46c0      	nop			; (mov r8, r8)
     e50:	0f64      	lsrs	r4, r4, #29
     e52:	5010      	str	r0, [r2, r0]
     e54:	0018      	movs	r0, r3
     e56:	d000      	beq.n	0xe5a
     e58:	b570      	push	{r4, r5, r6, lr}
     e5a:	4c0c      	ldr	r4, [pc, #48]	; (0xe8c)
     e5c:	6a03      	ldr	r3, [r0, #32]
     e5e:	6ce2      	ldr	r2, [r4, #76]	; 0x4c
     e60:	0005      	movs	r5, r0
     e62:	4293      	cmp	r3, r2
     e64:	d111      	bne.n	0xe8a
     e66:	6843      	ldr	r3, [r0, #4]
     e68:	4e09      	ldr	r6, [pc, #36]	; (0xe90)
     e6a:	6073      	str	r3, [r6, #4]
     e6c:	2b00      	cmp	r3, #0
     e6e:	d005      	beq.n	0xe7c
     e70:	2102      	movs	r1, #2
     e72:	6a60      	ldr	r0, [r4, #36]	; 0x24
     e74:	f7ff fcca 	bl	0x80c
     e78:	2300      	movs	r3, #0
     e7a:	7273      	strb	r3, [r6, #9]
     e7c:	69eb      	ldr	r3, [r5, #28]
     e7e:	6ba2      	ldr	r2, [r4, #56]	; 0x38
     e80:	0020      	movs	r0, r4
     e82:	18d3      	adds	r3, r2, r3
     e84:	63a3      	str	r3, [r4, #56]	; 0x38
     e86:	f7ff ffb1 	bl	0xdec
     e8a:	bd70      	pop	{r4, r5, r6, pc}
     e8c:	0ac8      	lsrs	r0, r1, #11
     e8e:	5010      	str	r0, [r2, r0]
     e90:	0ab8      	lsrs	r0, r7, #10
     e92:	5010      	str	r0, [r2, r0]
     e94:	b570      	push	{r4, r5, r6, lr}
     e96:	0004      	movs	r4, r0
     e98:	2601      	movs	r6, #1
     e9a:	4d0a      	ldr	r5, [pc, #40]	; (0xec4)
     e9c:	7568      	strb	r0, [r5, #21]
     e9e:	4b0a      	ldr	r3, [pc, #40]	; (0xec8)
     ea0:	00b2      	lsls	r2, r6, #2
     ea2:	58d0      	ldr	r0, [r2, r3]
     ea4:	2800      	cmp	r0, #0
     ea6:	d002      	beq.n	0xeae
     ea8:	2101      	movs	r1, #1
     eaa:	f7ff fd93 	bl	0x9d4
     eae:	3601      	adds	r6, #1
     eb0:	2e05      	cmp	r6, #5
     eb2:	d1f4      	bne.n	0xe9e
     eb4:	1e60      	subs	r0, r4, #1
     eb6:	4184      	sbcs	r4, r0
     eb8:	686b      	ldr	r3, [r5, #4]
     eba:	0028      	movs	r0, r5
     ebc:	b2e1      	uxtb	r1, r4
     ebe:	4798      	blx	r3
     ec0:	bd70      	pop	{r4, r5, r6, pc}
     ec2:	46c0      	nop			; (mov r8, r8)
     ec4:	09ec      	lsrs	r4, r5, #7
     ec6:	5010      	str	r0, [r2, r0]
     ec8:	0a08      	lsrs	r0, r1, #8
     eca:	5010      	str	r0, [r2, r0]
     ecc:	b510      	push	{r4, lr}
     ece:	2000      	movs	r0, #0
     ed0:	f7ff ffe0 	bl	0xe94
     ed4:	2300      	movs	r3, #0
     ed6:	4a05      	ldr	r2, [pc, #20]	; (0xeec)
     ed8:	7513      	strb	r3, [r2, #20]
     eda:	4a05      	ldr	r2, [pc, #20]	; (0xef0)
     edc:	6013      	str	r3, [r2, #0]
     ede:	2201      	movs	r2, #1
     ee0:	4b04      	ldr	r3, [pc, #16]	; (0xef4)
     ee2:	4252      	negs	r2, r2
     ee4:	659a      	str	r2, [r3, #88]	; 0x58
     ee6:	651a      	str	r2, [r3, #80]	; 0x50
     ee8:	bd10      	pop	{r4, pc}
     eea:	46c0      	nop			; (mov r8, r8)
     eec:	09ec      	lsrs	r4, r5, #7
     eee:	5010      	str	r0, [r2, r0]
     ef0:	0000      	movs	r0, r0
     ef2:	5011      	str	r1, [r2, r0]
     ef4:	3000      	adds	r0, #0
     ef6:	5011      	str	r1, [r2, r0]
     ef8:	2220      	movs	r2, #32
     efa:	4b0c      	ldr	r3, [pc, #48]	; (0xf2c)
     efc:	b510      	push	{r4, lr}
     efe:	601a      	str	r2, [r3, #0]
     f00:	4b0b      	ldr	r3, [pc, #44]	; (0xf30)
     f02:	6818      	ldr	r0, [r3, #0]
     f04:	23d0      	movs	r3, #208	; 0xd0
     f06:	061b      	lsls	r3, r3, #24
     f08:	6158      	str	r0, [r3, #20]
     f0a:	6258      	str	r0, [r3, #36]	; 0x24
     f0c:	f7ff fa3f 	bl	0x38e
     f10:	4b08      	ldr	r3, [pc, #32]	; (0xf34)
     f12:	18c2      	adds	r2, r0, r3
     f14:	23c0      	movs	r3, #192	; 0xc0
     f16:	0092      	lsls	r2, r2, #2
     f18:	019b      	lsls	r3, r3, #6
     f1a:	4313      	orrs	r3, r2
     f1c:	2280      	movs	r2, #128	; 0x80
     f1e:	601a      	str	r2, [r3, #0]
     f20:	4b05      	ldr	r3, [pc, #20]	; (0xf38)
     f22:	18c0      	adds	r0, r0, r3
     f24:	2305      	movs	r3, #5
     f26:	00c0      	lsls	r0, r0, #3
     f28:	6043      	str	r3, [r0, #4]
     f2a:	bd10      	pop	{r4, pc}
     f2c:	f000 4000 	and.w	r0, r0, #2147483648	; 0x80000000
     f30:	0f64      	lsrs	r4, r4, #29
     f32:	5010      	str	r0, [r2, r0]
     f34:	7001      	strb	r1, [r0, #0]
     f36:	1000      	asrs	r0, r0, #32
     f38:	2800      	cmp	r0, #0
     f3a:	0800      	lsrs	r0, r0, #32
     f3c:	b510      	push	{r4, lr}
     f3e:	000a      	movs	r2, r1
     f40:	2100      	movs	r1, #0
     f42:	f001 fbb9 	bl	0x26b8
     f46:	bd10      	pop	{r4, pc}
     f48:	4b11      	ldr	r3, [pc, #68]	; (0xf90)
     f4a:	b570      	push	{r4, r5, r6, lr}
     f4c:	781a      	ldrb	r2, [r3, #0]
     f4e:	4c11      	ldr	r4, [pc, #68]	; (0xf94)
     f50:	2a00      	cmp	r2, #0
     f52:	d107      	bne.n	0xf64
     f54:	4a10      	ldr	r2, [pc, #64]	; (0xf98)
     f56:	4911      	ldr	r1, [pc, #68]	; (0xf9c)
     f58:	6322      	str	r2, [r4, #48]	; 0x30
     f5a:	6011      	str	r1, [r2, #0]
     f5c:	4a10      	ldr	r2, [pc, #64]	; (0xfa0)
     f5e:	6122      	str	r2, [r4, #16]
     f60:	2201      	movs	r2, #1
     f62:	701a      	strb	r2, [r3, #0]
     f64:	4d0f      	ldr	r5, [pc, #60]	; (0xfa4)
     f66:	2128      	movs	r1, #40	; 0x28
     f68:	0028      	movs	r0, r5
     f6a:	f7ff ffe7 	bl	0xf3c
     f6e:	2370      	movs	r3, #112	; 0x70
     f70:	736b      	strb	r3, [r5, #13]
     f72:	3b66      	subs	r3, #102	; 0x66
     f74:	752b      	strb	r3, [r5, #20]
     f76:	2500      	movs	r5, #0
     f78:	4b0b      	ldr	r3, [pc, #44]	; (0xfa8)
     f7a:	0029      	movs	r1, r5
     f7c:	0020      	movs	r0, r4
     f7e:	611d      	str	r5, [r3, #16]
     f80:	f7ff fd28 	bl	0x9d4
     f84:	0020      	movs	r0, r4
     f86:	0029      	movs	r1, r5
     f88:	302c      	adds	r0, #44	; 0x2c
     f8a:	f7ff fd23 	bl	0x9d4
     f8e:	bd70      	pop	{r4, r5, r6, pc}
     f90:	0e20      	lsrs	r0, r4, #24
     f92:	5010      	str	r0, [r2, r0]
     f94:	0dc0      	lsrs	r0, r0, #23
     f96:	5010      	str	r0, [r2, r0]
     f98:	0a38      	lsrs	r0, r7, #8
     f9a:	5010      	str	r0, [r2, r0]
     f9c:	3dd2      	subs	r5, #210	; 0xd2
     f9e:	0000      	movs	r0, r0
     fa0:	1445      	asrs	r5, r0, #17
     fa2:	0000      	movs	r0, r0
     fa4:	0a7c      	lsrs	r4, r7, #9
     fa6:	5010      	str	r0, [r2, r0]
     fa8:	0d3c      	lsrs	r4, r7, #20
     faa:	5010      	str	r0, [r2, r0]
     fac:	2260      	movs	r2, #96	; 0x60
     fae:	780b      	ldrb	r3, [r1, #0]
     fb0:	b510      	push	{r4, lr}
     fb2:	401a      	ands	r2, r3
     fb4:	2400      	movs	r4, #0
     fb6:	2a20      	cmp	r2, #32
     fb8:	d114      	bne.n	0xfe4
     fba:	b25b      	sxtb	r3, r3
     fbc:	784a      	ldrb	r2, [r1, #1]
     fbe:	42a3      	cmp	r3, r4
     fc0:	da12      	bge.n	0xfe8
     fc2:	2afe      	cmp	r2, #254	; 0xfe
     fc4:	d10e      	bne.n	0xfe4
     fc6:	884b      	ldrh	r3, [r1, #2]
     fc8:	42a3      	cmp	r3, r4
     fca:	d10b      	bne.n	0xfe4
     fcc:	88cb      	ldrh	r3, [r1, #6]
     fce:	42a3      	cmp	r3, r4
     fd0:	d008      	beq.n	0xfe4
     fd2:	4813      	ldr	r0, [pc, #76]	; (0x1020)
     fd4:	f7ff fafa 	bl	0x5cc
     fd8:	6803      	ldr	r3, [r0, #0]
     fda:	701c      	strb	r4, [r3, #0]
     fdc:	3401      	adds	r4, #1
     fde:	7104      	strb	r4, [r0, #4]
     fe0:	f7ff fbe0 	bl	0x7a4
     fe4:	0020      	movs	r0, r4
     fe6:	bd10      	pop	{r4, pc}
     fe8:	2aff      	cmp	r2, #255	; 0xff
     fea:	d1fb      	bne.n	0xfe4
     fec:	884b      	ldrh	r3, [r1, #2]
     fee:	2b00      	cmp	r3, #0
     ff0:	d1f8      	bne.n	0xfe4
     ff2:	88ca      	ldrh	r2, [r1, #6]
     ff4:	001c      	movs	r4, r3
     ff6:	2a00      	cmp	r2, #0
     ff8:	d1f4      	bne.n	0xfe4
     ffa:	4b0a      	ldr	r3, [pc, #40]	; (0x1024)
     ffc:	1dda      	adds	r2, r3, #7
     ffe:	7fd1      	ldrb	r1, [r2, #31]
    1000:	2903      	cmp	r1, #3
    1002:	d101      	bne.n	0x1008
    1004:	3901      	subs	r1, #1
    1006:	77d1      	strb	r1, [r2, #31]
    1008:	3352      	adds	r3, #82	; 0x52
    100a:	781a      	ldrb	r2, [r3, #0]
    100c:	2a03      	cmp	r2, #3
    100e:	d101      	bne.n	0x1014
    1010:	3a01      	subs	r2, #1
    1012:	701a      	strb	r2, [r3, #0]
    1014:	f7ff ff98 	bl	0xf48
    1018:	2401      	movs	r4, #1
    101a:	f7ff fbab 	bl	0x774
    101e:	e7e1      	b.n	0xfe4
    1020:	0f68      	lsrs	r0, r5, #29
    1022:	5010      	str	r0, [r2, r0]
    1024:	0dc0      	lsrs	r0, r0, #23
    1026:	5010      	str	r0, [r2, r0]
    1028:	b5f7      	push	{r0, r1, r2, r4, r5, r6, r7, lr}
    102a:	000d      	movs	r5, r1
    102c:	2180      	movs	r1, #128	; 0x80
    102e:	0010      	movs	r0, r2
    1030:	0089      	lsls	r1, r1, #2
    1032:	0014      	movs	r4, r2
    1034:	f7ff ff82 	bl	0xf3c
    1038:	2d00      	cmp	r5, #0
    103a:	d120      	bne.n	0x107e
    103c:	0020      	movs	r0, r4
    103e:	30c3      	adds	r0, #195	; 0xc3
    1040:	220b      	movs	r2, #11
    1042:	494f      	ldr	r1, [pc, #316]	; (0x1180)
    1044:	30ff      	adds	r0, #255	; 0xff
    1046:	f001 fae9 	bl	0x261c
    104a:	23ff      	movs	r3, #255	; 0xff
    104c:	2255      	movs	r2, #85	; 0x55
    104e:	005b      	lsls	r3, r3, #1
    1050:	54e2      	strb	r2, [r4, r3]
    1052:	4b4c      	ldr	r3, [pc, #304]	; (0x1184)
    1054:	1892      	adds	r2, r2, r2
    1056:	54e2      	strb	r2, [r4, r3]
    1058:	4b4b      	ldr	r3, [pc, #300]	; (0x1188)
    105a:	791a      	ldrb	r2, [r3, #4]
    105c:	2a00      	cmp	r2, #0
    105e:	d104      	bne.n	0x106a
    1060:	4a4a      	ldr	r2, [pc, #296]	; (0x118c)
    1062:	6a92      	ldr	r2, [r2, #40]	; 0x28
    1064:	601a      	str	r2, [r3, #0]
    1066:	2201      	movs	r2, #1
    1068:	711a      	strb	r2, [r3, #4]
    106a:	0020      	movs	r0, r4
    106c:	681b      	ldr	r3, [r3, #0]
    106e:	30b9      	adds	r0, #185	; 0xb9
    1070:	9301      	str	r3, [sp, #4]
    1072:	30ff      	adds	r0, #255	; 0xff
    1074:	2204      	movs	r2, #4
    1076:	a901      	add	r1, sp, #4
    1078:	f001 fad0 	bl	0x261c
    107c:	e023      	b.n	0x10c6
    107e:	2d01      	cmp	r5, #1
    1080:	d111      	bne.n	0x10a6
    1082:	4b41      	ldr	r3, [pc, #260]	; (0x1188)
    1084:	791a      	ldrb	r2, [r3, #4]
    1086:	2a00      	cmp	r2, #0
    1088:	d103      	bne.n	0x1092
    108a:	4a40      	ldr	r2, [pc, #256]	; (0x118c)
    108c:	6a92      	ldr	r2, [r2, #40]	; 0x28
    108e:	711d      	strb	r5, [r3, #4]
    1090:	601a      	str	r2, [r3, #0]
    1092:	681b      	ldr	r3, [r3, #0]
    1094:	2240      	movs	r2, #64	; 0x40
    1096:	0020      	movs	r0, r4
    1098:	493d      	ldr	r1, [pc, #244]	; (0x1190)
    109a:	9301      	str	r3, [sp, #4]
    109c:	f001 fabe 	bl	0x261c
    10a0:	0020      	movs	r0, r4
    10a2:	3027      	adds	r0, #39	; 0x27
    10a4:	e7e6      	b.n	0x1074
    10a6:	2281      	movs	r2, #129	; 0x81
    10a8:	1eab      	subs	r3, r5, #2
    10aa:	0052      	lsls	r2, r2, #1
    10ac:	4293      	cmp	r3, r2
    10ae:	d20c      	bcs.n	0x10ca
    10b0:	2b80      	cmp	r3, #128	; 0x80
    10b2:	d900      	bls.n	0x10b6
    10b4:	3b81      	subs	r3, #129	; 0x81
    10b6:	2b00      	cmp	r3, #0
    10b8:	d105      	bne.n	0x10c6
    10ba:	3b08      	subs	r3, #8
    10bc:	8023      	strh	r3, [r4, #0]
    10be:	3307      	adds	r3, #7
    10c0:	8063      	strh	r3, [r4, #2]
    10c2:	80a3      	strh	r3, [r4, #4]
    10c4:	80e3      	strh	r3, [r4, #6]
    10c6:	2000      	movs	r0, #0
    10c8:	bdfe      	pop	{r1, r2, r3, r4, r5, r6, r7, pc}
    10ca:	1f6b      	subs	r3, r5, #5
    10cc:	3bff      	subs	r3, #255	; 0xff
    10ce:	2b1f      	cmp	r3, #31
    10d0:	d839      	bhi.n	0x1146
    10d2:	2b00      	cmp	r3, #0
    10d4:	d1f7      	bne.n	0x10c6
    10d6:	492e      	ldr	r1, [pc, #184]	; (0x1190)
    10d8:	220b      	movs	r2, #11
    10da:	312b      	adds	r1, #43	; 0x2b
    10dc:	0020      	movs	r0, r4
    10de:	f001 fa9d 	bl	0x261c
    10e2:	2328      	movs	r3, #40	; 0x28
    10e4:	72e3      	strb	r3, [r4, #11]
    10e6:	0023      	movs	r3, r4
    10e8:	2264      	movs	r2, #100	; 0x64
    10ea:	0020      	movs	r0, r4
    10ec:	4e29      	ldr	r6, [pc, #164]	; (0x1194)
    10ee:	4d2a      	ldr	r5, [pc, #168]	; (0x1198)
    10f0:	332d      	adds	r3, #45	; 0x2d
    10f2:	701a      	strb	r2, [r3, #0]
    10f4:	4929      	ldr	r1, [pc, #164]	; (0x119c)
    10f6:	3a59      	subs	r2, #89	; 0x59
    10f8:	85e6      	strh	r6, [r4, #46]	; 0x2e
    10fa:	8625      	strh	r5, [r4, #48]	; 0x30
    10fc:	86e6      	strh	r6, [r4, #54]	; 0x36
    10fe:	8725      	strh	r5, [r4, #56]	; 0x38
    1100:	3020      	adds	r0, #32
    1102:	f001 fa8b 	bl	0x261c
    1106:	0023      	movs	r3, r4
    1108:	2121      	movs	r1, #33	; 0x21
    110a:	332b      	adds	r3, #43	; 0x2b
    110c:	7019      	strb	r1, [r3, #0]
    110e:	2302      	movs	r3, #2
    1110:	8763      	strh	r3, [r4, #58]	; 0x3a
    1112:	33ef      	adds	r3, #239	; 0xef
    1114:	63e3      	str	r3, [r4, #60]	; 0x3c
    1116:	0027      	movs	r7, r4
    1118:	0023      	movs	r3, r4
    111a:	2264      	movs	r2, #100	; 0x64
    111c:	334e      	adds	r3, #78	; 0x4e
    111e:	3740      	adds	r7, #64	; 0x40
    1120:	737a      	strb	r2, [r7, #13]
    1122:	491f      	ldr	r1, [pc, #124]	; (0x11a0)
    1124:	801e      	strh	r6, [r3, #0]
    1126:	805d      	strh	r5, [r3, #2]
    1128:	811e      	strh	r6, [r3, #8]
    112a:	815d      	strh	r5, [r3, #10]
    112c:	3a59      	subs	r2, #89	; 0x59
    112e:	0038      	movs	r0, r7
    1130:	f001 fa74 	bl	0x261c
    1134:	0023      	movs	r3, r4
    1136:	2121      	movs	r1, #33	; 0x21
    1138:	2203      	movs	r2, #3
    113a:	335a      	adds	r3, #90	; 0x5a
    113c:	72f9      	strb	r1, [r7, #11]
    113e:	801a      	strh	r2, [r3, #0]
    1140:	233e      	movs	r3, #62	; 0x3e
    1142:	65e3      	str	r3, [r4, #92]	; 0x5c
    1144:	e7bf      	b.n	0x10c6
    1146:	3d25      	subs	r5, #37	; 0x25
    1148:	3dff      	subs	r5, #255	; 0xff
    114a:	076b      	lsls	r3, r5, #29
    114c:	d1bb      	bne.n	0x10c6
    114e:	08ed      	lsrs	r5, r5, #3
    1150:	d110      	bne.n	0x1174
    1152:	0022      	movs	r2, r4
    1154:	219f      	movs	r1, #159	; 0x9f
    1156:	4813      	ldr	r0, [pc, #76]	; (0x11a4)
    1158:	f001 fa41 	bl	0x25de
    115c:	0020      	movs	r0, r4
    115e:	4d12      	ldr	r5, [pc, #72]	; (0x11a8)
    1160:	220c      	movs	r2, #12
    1162:	0029      	movs	r1, r5
    1164:	3062      	adds	r0, #98	; 0x62
    1166:	f001 fa59 	bl	0x261c
    116a:	0020      	movs	r0, r4
    116c:	220c      	movs	r2, #12
    116e:	0029      	movs	r1, r5
    1170:	30c2      	adds	r0, #194	; 0xc2
    1172:	e781      	b.n	0x1078
    1174:	2d01      	cmp	r5, #1
    1176:	d1a6      	bne.n	0x10c6
    1178:	223e      	movs	r2, #62	; 0x3e
    117a:	0020      	movs	r0, r4
    117c:	490b      	ldr	r1, [pc, #44]	; (0x11ac)
    117e:	e77b      	b.n	0x1078
    1180:	3df0      	subs	r5, #240	; 0xf0
    1182:	0000      	movs	r0, r0
    1184:	01ff      	lsls	r7, r7, #7
    1186:	0000      	movs	r0, r0
    1188:	0db4      	lsrs	r4, r6, #22
    118a:	5010      	str	r0, [r2, r0]
    118c:	4000      	ands	r0, r0
    118e:	4005      	ands	r5, r0
    1190:	3e64      	subs	r6, #100	; 0x64
    1192:	0000      	movs	r0, r0
    1194:	8299      	strh	r1, [r3, #20]
    1196:	ffff 3925 	vtbl.8	d19, {d15-d16}, d21
    119a:	0000      	movs	r0, r0
    119c:	3da4      	subs	r5, #164	; 0xa4
    119e:	0000      	movs	r0, r0
    11a0:	3db0      	subs	r5, #176	; 0xb0
    11a2:	0000      	movs	r0, r0
    11a4:	3ff6      	subs	r7, #246	; 0xf6
    11a6:	0000      	movs	r0, r0
    11a8:	0eb5      	lsrs	r5, r6, #26
    11aa:	5010      	str	r0, [r2, r0]
    11ac:	3ef0      	subs	r6, #240	; 0xf0
    11ae:	0000      	movs	r0, r0
    11b0:	b5f0      	push	{r4, r5, r6, r7, lr}
    11b2:	4b85      	ldr	r3, [pc, #532]	; (0x13c8)
    11b4:	0016      	movs	r6, r2
    11b6:	6812      	ldr	r2, [r2, #0]
    11b8:	b085      	sub	sp, #20
    11ba:	9003      	str	r0, [sp, #12]
    11bc:	429a      	cmp	r2, r3
    11be:	d002      	beq.n	0x11c6
    11c0:	2000      	movs	r0, #0
    11c2:	b005      	add	sp, #20
    11c4:	bdf0      	pop	{r4, r5, r6, r7, pc}
    11c6:	4b81      	ldr	r3, [pc, #516]	; (0x13cc)
    11c8:	6872      	ldr	r2, [r6, #4]
    11ca:	429a      	cmp	r2, r3
    11cc:	d1f8      	bne.n	0x11c0
    11ce:	22fe      	movs	r2, #254	; 0xfe
    11d0:	0052      	lsls	r2, r2, #1
    11d2:	4b7f      	ldr	r3, [pc, #508]	; (0x13d0)
    11d4:	58b2      	ldr	r2, [r6, r2]
    11d6:	429a      	cmp	r2, r3
    11d8:	d1f2      	bne.n	0x11c0
    11da:	68b3      	ldr	r3, [r6, #8]
    11dc:	049a      	lsls	r2, r3, #18
    11de:	d5ef      	bpl.n	0x11c0
    11e0:	4a7c      	ldr	r2, [pc, #496]	; (0x13d4)
    11e2:	69f1      	ldr	r1, [r6, #28]
    11e4:	4291      	cmp	r1, r2
    11e6:	d1eb      	bne.n	0x11c0
    11e8:	2201      	movs	r2, #1
    11ea:	001d      	movs	r5, r3
    11ec:	4015      	ands	r5, r2
    11ee:	4213      	tst	r3, r2
    11f0:	d1e6      	bne.n	0x11c0
    11f2:	2380      	movs	r3, #128	; 0x80
    11f4:	6932      	ldr	r2, [r6, #16]
    11f6:	005b      	lsls	r3, r3, #1
    11f8:	429a      	cmp	r2, r3
    11fa:	d1e1      	bne.n	0x11c0
    11fc:	68f7      	ldr	r7, [r6, #12]
    11fe:	0038      	movs	r0, r7
    1200:	f7ff fc76 	bl	0xaf0
    1204:	2800      	cmp	r0, #0
    1206:	d004      	beq.n	0x1212
    1208:	0038      	movs	r0, r7
    120a:	30ff      	adds	r0, #255	; 0xff
    120c:	f7ff fc70 	bl	0xaf0
    1210:	0005      	movs	r5, r0
    1212:	69b3      	ldr	r3, [r6, #24]
    1214:	4c70      	ldr	r4, [pc, #448]	; (0x13d8)
    1216:	2b00      	cmp	r3, #0
    1218:	d009      	beq.n	0x122e
    121a:	22f0      	movs	r2, #240	; 0xf0
    121c:	0612      	lsls	r2, r2, #24
    121e:	18ba      	adds	r2, r7, r2
    1220:	9201      	str	r2, [sp, #4]
    1222:	2d00      	cmp	r5, #0
    1224:	d106      	bne.n	0x1234
    1226:	0011      	movs	r1, r2
    1228:	4a6c      	ldr	r2, [pc, #432]	; (0x13dc)
    122a:	4291      	cmp	r1, r2
    122c:	d907      	bls.n	0x123e
    122e:	2000      	movs	r0, #0
    1230:	6120      	str	r0, [r4, #16]
    1232:	e7c6      	b.n	0x11c2
    1234:	9a01      	ldr	r2, [sp, #4]
    1236:	0011      	movs	r1, r2
    1238:	4a68      	ldr	r2, [pc, #416]	; (0x13dc)
    123a:	4291      	cmp	r1, r2
    123c:	d802      	bhi.n	0x1244
    123e:	b2ff      	uxtb	r7, r7
    1240:	2f00      	cmp	r7, #0
    1242:	d1f4      	bne.n	0x122e
    1244:	4a66      	ldr	r2, [pc, #408]	; (0x13e0)
    1246:	3229      	adds	r2, #41	; 0x29
    1248:	7812      	ldrb	r2, [r2, #0]
    124a:	2a00      	cmp	r2, #0
    124c:	d1ef      	bne.n	0x122e
    124e:	3201      	adds	r2, #1
    1250:	402a      	ands	r2, r5
    1252:	9202      	str	r2, [sp, #8]
    1254:	6922      	ldr	r2, [r4, #16]
    1256:	2708      	movs	r7, #8
    1258:	4293      	cmp	r3, r2
    125a:	d035      	beq.n	0x12c8
    125c:	0020      	movs	r0, r4
    125e:	2150      	movs	r1, #80	; 0x50
    1260:	f7ff fe6c 	bl	0xf3c
    1264:	0023      	movs	r3, r4
    1266:	9a02      	ldr	r2, [sp, #8]
    1268:	334c      	adds	r3, #76	; 0x4c
    126a:	485e      	ldr	r0, [pc, #376]	; (0x13e4)
    126c:	701a      	strb	r2, [r3, #0]
    126e:	2d00      	cmp	r5, #0
    1270:	d101      	bne.n	0x1276
    1272:	20a8      	movs	r0, #168	; 0xa8
    1274:	0540      	lsls	r0, r0, #21
    1276:	4269      	negs	r1, r5
    1278:	4169      	adcs	r1, r5
    127a:	23a0      	movs	r3, #160	; 0xa0
    127c:	4d5a      	ldr	r5, [pc, #360]	; (0x13e8)
    127e:	4249      	negs	r1, r1
    1280:	00db      	lsls	r3, r3, #3
    1282:	4029      	ands	r1, r5
    1284:	18c9      	adds	r1, r1, r3
    1286:	6061      	str	r1, [r4, #4]
    1288:	08c9      	lsrs	r1, r1, #3
    128a:	6020      	str	r0, [r4, #0]
    128c:	f7ff fe56 	bl	0xf3c
    1290:	9b01      	ldr	r3, [sp, #4]
    1292:	001a      	movs	r2, r3
    1294:	4b51      	ldr	r3, [pc, #324]	; (0x13dc)
    1296:	429a      	cmp	r2, r3
    1298:	d806      	bhi.n	0x12a8
    129a:	4854      	ldr	r0, [pc, #336]	; (0x13ec)
    129c:	4b54      	ldr	r3, [pc, #336]	; (0x13f0)
    129e:	4955      	ldr	r1, [pc, #340]	; (0x13f4)
    12a0:	60a0      	str	r0, [r4, #8]
    12a2:	60e3      	str	r3, [r4, #12]
    12a4:	f7ff fe4a 	bl	0xf3c
    12a8:	69b3      	ldr	r3, [r6, #24]
    12aa:	6862      	ldr	r2, [r4, #4]
    12ac:	4293      	cmp	r3, r2
    12ae:	d900      	bls.n	0x12b2
    12b0:	e786      	b.n	0x11c0
    12b2:	6123      	str	r3, [r4, #16]
    12b4:	2301      	movs	r3, #1
    12b6:	2700      	movs	r7, #0
    12b8:	425b      	negs	r3, r3
    12ba:	9a01      	ldr	r2, [sp, #4]
    12bc:	61e3      	str	r3, [r4, #28]
    12be:	4b47      	ldr	r3, [pc, #284]	; (0x13dc)
    12c0:	61a7      	str	r7, [r4, #24]
    12c2:	4293      	cmp	r3, r2
    12c4:	417f      	adcs	r7, r7
    12c6:	3708      	adds	r7, #8
    12c8:	0023      	movs	r3, r4
    12ca:	334c      	adds	r3, #76	; 0x4c
    12cc:	781b      	ldrb	r3, [r3, #0]
    12ce:	9a02      	ldr	r2, [sp, #8]
    12d0:	4293      	cmp	r3, r2
    12d2:	d1ac      	bne.n	0x122e
    12d4:	6973      	ldr	r3, [r6, #20]
    12d6:	69b2      	ldr	r2, [r6, #24]
    12d8:	4293      	cmp	r3, r2
    12da:	d2a8      	bcs.n	0x122e
    12dc:	0020      	movs	r0, r4
    12de:	2128      	movs	r1, #40	; 0x28
    12e0:	3024      	adds	r0, #36	; 0x24
    12e2:	f7ff fe2b 	bl	0xf3c
    12e6:	0022      	movs	r2, r4
    12e8:	9b03      	ldr	r3, [sp, #12]
    12ea:	3248      	adds	r2, #72	; 0x48
    12ec:	6971      	ldr	r1, [r6, #20]
    12ee:	6263      	str	r3, [r4, #36]	; 0x24
    12f0:	6163      	str	r3, [r4, #20]
    12f2:	68f3      	ldr	r3, [r6, #12]
    12f4:	7017      	strb	r7, [r2, #0]
    12f6:	4a40      	ldr	r2, [pc, #256]	; (0x13f8)
    12f8:	2001      	movs	r0, #1
    12fa:	4694      	mov	ip, r2
    12fc:	62e2      	str	r2, [r4, #44]	; 0x2c
    12fe:	2280      	movs	r2, #128	; 0x80
    1300:	0052      	lsls	r2, r2, #1
    1302:	6422      	str	r2, [r4, #64]	; 0x40
    1304:	0022      	movs	r2, r4
    1306:	324a      	adds	r2, #74	; 0x4a
    1308:	7010      	strb	r0, [r2, #0]
    130a:	221f      	movs	r2, #31
    130c:	400a      	ands	r2, r1
    130e:	4090      	lsls	r0, r2
    1310:	6825      	ldr	r5, [r4, #0]
    1312:	094a      	lsrs	r2, r1, #5
    1314:	0092      	lsls	r2, r2, #2
    1316:	6221      	str	r1, [r4, #32]
    1318:	6323      	str	r3, [r4, #48]	; 0x30
    131a:	18aa      	adds	r2, r5, r2
    131c:	6815      	ldr	r5, [r2, #0]
    131e:	3620      	adds	r6, #32
    1320:	63e6      	str	r6, [r4, #60]	; 0x3c
    1322:	9001      	str	r0, [sp, #4]
    1324:	4205      	tst	r5, r0
    1326:	d000      	beq.n	0x132a
    1328:	e74a      	b.n	0x11c0
    132a:	2580      	movs	r5, #128	; 0x80
    132c:	69e6      	ldr	r6, [r4, #28]
    132e:	05ad      	lsls	r5, r5, #22
    1330:	42b3      	cmp	r3, r6
    1332:	d20b      	bcs.n	0x134c
    1334:	42ab      	cmp	r3, r5
    1336:	41bf      	sbcs	r7, r7
    1338:	427f      	negs	r7, r7
    133a:	0038      	movs	r0, r7
    133c:	42ae      	cmp	r6, r5
    133e:	41bf      	sbcs	r7, r7
    1340:	427f      	negs	r7, r7
    1342:	9702      	str	r7, [sp, #8]
    1344:	0007      	movs	r7, r0
    1346:	9802      	ldr	r0, [sp, #8]
    1348:	4287      	cmp	r7, r0
    134a:	d003      	beq.n	0x1354
    134c:	42ae      	cmp	r6, r5
    134e:	d202      	bcs.n	0x1356
    1350:	42ab      	cmp	r3, r5
    1352:	d300      	bcc.n	0x1356
    1354:	61e3      	str	r3, [r4, #28]
    1356:	0025      	movs	r5, r4
    1358:	354c      	adds	r5, #76	; 0x4c
    135a:	782d      	ldrb	r5, [r5, #0]
    135c:	2d00      	cmp	r5, #0
    135e:	d11a      	bne.n	0x1396
    1360:	020e      	lsls	r6, r1, #8
    1362:	05c9      	lsls	r1, r1, #23
    1364:	0ec9      	lsrs	r1, r1, #27
    1366:	3501      	adds	r5, #1
    1368:	408d      	lsls	r5, r1
    136a:	0c71      	lsrs	r1, r6, #17
    136c:	68a6      	ldr	r6, [r4, #8]
    136e:	0089      	lsls	r1, r1, #2
    1370:	1871      	adds	r1, r6, r1
    1372:	680e      	ldr	r6, [r1, #0]
    1374:	422e      	tst	r6, r5
    1376:	d10e      	bne.n	0x1396
    1378:	0b1b      	lsrs	r3, r3, #12
    137a:	031b      	lsls	r3, r3, #12
    137c:	6363      	str	r3, [r4, #52]	; 0x34
    137e:	2380      	movs	r3, #128	; 0x80
    1380:	015b      	lsls	r3, r3, #5
    1382:	63a3      	str	r3, [r4, #56]	; 0x38
    1384:	680b      	ldr	r3, [r1, #0]
    1386:	431d      	orrs	r5, r3
    1388:	600d      	str	r5, [r1, #0]
    138a:	0021      	movs	r1, r4
    138c:	2302      	movs	r3, #2
    138e:	3148      	adds	r1, #72	; 0x48
    1390:	780d      	ldrb	r5, [r1, #0]
    1392:	432b      	orrs	r3, r5
    1394:	700b      	strb	r3, [r1, #0]
    1396:	69a3      	ldr	r3, [r4, #24]
    1398:	9801      	ldr	r0, [sp, #4]
    139a:	3301      	adds	r3, #1
    139c:	61a3      	str	r3, [r4, #24]
    139e:	6813      	ldr	r3, [r2, #0]
    13a0:	0021      	movs	r1, r4
    13a2:	4318      	orrs	r0, r3
    13a4:	4663      	mov	r3, ip
    13a6:	4d0e      	ldr	r5, [pc, #56]	; (0x13e0)
    13a8:	6010      	str	r0, [r2, #0]
    13aa:	3528      	adds	r5, #40	; 0x28
    13ac:	62e3      	str	r3, [r4, #44]	; 0x2c
    13ae:	2228      	movs	r2, #40	; 0x28
    13b0:	3124      	adds	r1, #36	; 0x24
    13b2:	480b      	ldr	r0, [pc, #44]	; (0x13e0)
    13b4:	782b      	ldrb	r3, [r5, #0]
    13b6:	f001 f931 	bl	0x261c
    13ba:	2001      	movs	r0, #1
    13bc:	7028      	strb	r0, [r5, #0]
    13be:	bf40      	sev
    13c0:	344b      	adds	r4, #75	; 0x4b
    13c2:	7020      	strb	r0, [r4, #0]
    13c4:	e6fd      	b.n	0x11c2
    13c6:	46c0      	nop			; (mov r8, r8)
    13c8:	4655      	mov	r5, sl
    13ca:	0a32      	lsrs	r2, r6, #8
    13cc:	5157      	str	r7, [r2, r5]
    13ce:	9e5d      	ldr	r6, [sp, #372]	; 0x174
    13d0:	6f30      	ldr	r0, [r6, #112]	; 0x70
    13d2:	0ab1      	lsrs	r1, r6, #10
    13d4:	ff56 e48b 	vshl.u16	d30, d11, d22
    13d8:	0d3c      	lsrs	r4, r7, #20
    13da:	5010      	str	r0, [r2, r0]
    13dc:	ff01 0fff 	vmaxnm.f32	q0, <illegal reg q8.5>, <illegal reg q15.5>
    13e0:	0fc0      	lsrs	r0, r0, #31
    13e2:	5010      	str	r0, [r2, r0]
    13e4:	0ec4      	lsrs	r4, r0, #27
    13e6:	5010      	str	r0, [r2, r0]
    13e8:	dce0      	bgt.n	0x13ac
    13ea:	0001      	movs	r1, r0
    13ec:	3c3c      	subs	r4, #60	; 0x3c
    13ee:	1500      	asrs	r0, r0, #20
    13f0:	1e1e      	subs	r6, r3, #0
    13f2:	0000      	movs	r0, r0
    13f4:	03c3      	lsls	r3, r0, #15
    13f6:	0000      	movs	r0, r0
    13f8:	1629      	asrs	r1, r5, #24
    13fa:	0000      	movs	r0, r0
    13fc:	b570      	push	{r4, r5, r6, lr}
    13fe:	000d      	movs	r5, r1
    1400:	f7ff f8e4 	bl	0x5cc
    1404:	0004      	movs	r4, r0
    1406:	0029      	movs	r1, r5
    1408:	6800      	ldr	r0, [r0, #0]
    140a:	f7ff fd97 	bl	0xf3c
    140e:	6820      	ldr	r0, [r4, #0]
    1410:	7125      	strb	r5, [r4, #4]
    1412:	bd70      	pop	{r4, r5, r6, pc}
    1414:	2200      	movs	r2, #0
    1416:	b510      	push	{r4, lr}
    1418:	4c07      	ldr	r4, [pc, #28]	; (0x1438)
    141a:	210d      	movs	r1, #13
    141c:	1da3      	adds	r3, r4, #6
    141e:	4807      	ldr	r0, [pc, #28]	; (0x143c)
    1420:	77da      	strb	r2, [r3, #31]
    1422:	f7ff ffeb 	bl	0x13fc
    1426:	220d      	movs	r2, #13
    1428:	0021      	movs	r1, r4
    142a:	f001 f8f7 	bl	0x261c
    142e:	4804      	ldr	r0, [pc, #16]	; (0x1440)
    1430:	f7ff f968 	bl	0x704
    1434:	bd10      	pop	{r4, pc}
    1436:	46c0      	nop			; (mov r8, r8)
    1438:	0a7c      	lsrs	r4, r7, #9
    143a:	5010      	str	r0, [r2, r0]
    143c:	0dc0      	lsrs	r0, r0, #23
    143e:	5010      	str	r0, [r2, r0]
    1440:	0735      	lsls	r5, r6, #28
    1442:	0000      	movs	r0, r0
    1444:	b510      	push	{r4, lr}
    1446:	1dc3      	adds	r3, r0, #7
    1448:	7fdb      	ldrb	r3, [r3, #31]
    144a:	2b00      	cmp	r3, #0
    144c:	d109      	bne.n	0x1462
    144e:	4b05      	ldr	r3, [pc, #20]	; (0x1464)
    1450:	4298      	cmp	r0, r3
    1452:	d106      	bne.n	0x1462
    1454:	4b04      	ldr	r3, [pc, #16]	; (0x1468)
    1456:	3306      	adds	r3, #6
    1458:	7fdb      	ldrb	r3, [r3, #31]
    145a:	2b00      	cmp	r3, #0
    145c:	d001      	beq.n	0x1462
    145e:	f7ff ffd9 	bl	0x1414
    1462:	bd10      	pop	{r4, pc}
    1464:	0dc0      	lsrs	r0, r0, #23
    1466:	5010      	str	r0, [r2, r0]
    1468:	0a7c      	lsrs	r4, r7, #9
    146a:	5010      	str	r0, [r2, r0]
    146c:	b510      	push	{r4, lr}
    146e:	4a0c      	ldr	r2, [pc, #48]	; (0x14a0)
    1470:	1d53      	adds	r3, r2, #5
    1472:	7fd9      	ldrb	r1, [r3, #31]
    1474:	2901      	cmp	r1, #1
    1476:	d107      	bne.n	0x1488
    1478:	2380      	movs	r3, #128	; 0x80
    147a:	005b      	lsls	r3, r3, #1
    147c:	4809      	ldr	r0, [pc, #36]	; (0x14a4)
    147e:	8493      	strh	r3, [r2, #36]	; 0x24
    1480:	3101      	adds	r1, #1
    1482:	f7ff f9c3 	bl	0x80c
    1486:	bd10      	pop	{r4, pc}
    1488:	2902      	cmp	r1, #2
    148a:	d105      	bne.n	0x1498
    148c:	2200      	movs	r2, #0
    148e:	4805      	ldr	r0, [pc, #20]	; (0x14a4)
    1490:	77da      	strb	r2, [r3, #31]
    1492:	302c      	adds	r0, #44	; 0x2c
    1494:	f7ff f9ba 	bl	0x80c
    1498:	f7ff ffbc 	bl	0x1414
    149c:	e7f3      	b.n	0x1486
    149e:	46c0      	nop			; (mov r8, r8)
    14a0:	0a7c      	lsrs	r4, r7, #9
    14a2:	5010      	str	r0, [r2, r0]
    14a4:	0dc0      	lsrs	r0, r0, #23
    14a6:	5010      	str	r0, [r2, r0]
    14a8:	2300      	movs	r3, #0
    14aa:	b570      	push	{r4, r5, r6, lr}
    14ac:	4c11      	ldr	r4, [pc, #68]	; (0x14f4)
    14ae:	1d65      	adds	r5, r4, #5
    14b0:	77eb      	strb	r3, [r5, #31]
    14b2:	6223      	str	r3, [r4, #32]
    14b4:	7b05      	ldrb	r5, [r0, #12]
    14b6:	3301      	adds	r3, #1
    14b8:	2d7f      	cmp	r5, #127	; 0x7f
    14ba:	d800      	bhi.n	0x14be
    14bc:	3301      	adds	r3, #1
    14be:	429a      	cmp	r2, r3
    14c0:	d007      	beq.n	0x14d2
    14c2:	1d62      	adds	r2, r4, #5
    14c4:	77d3      	strb	r3, [r2, #31]
    14c6:	2302      	movs	r3, #2
    14c8:	7323      	strb	r3, [r4, #12]
    14ca:	f7ff ffcf 	bl	0x146c
    14ce:	2000      	movs	r0, #0
    14d0:	e00f      	b.n	0x14f2
    14d2:	6883      	ldr	r3, [r0, #8]
    14d4:	428b      	cmp	r3, r1
    14d6:	d005      	beq.n	0x14e4
    14d8:	1d60      	adds	r0, r4, #5
    14da:	77c2      	strb	r2, [r0, #31]
    14dc:	428b      	cmp	r3, r1
    14de:	d201      	bcs.n	0x14e4
    14e0:	2202      	movs	r2, #2
    14e2:	7322      	strb	r2, [r4, #12]
    14e4:	428b      	cmp	r3, r1
    14e6:	d900      	bls.n	0x14ea
    14e8:	000b      	movs	r3, r1
    14ea:	2001      	movs	r0, #1
    14ec:	6223      	str	r3, [r4, #32]
    14ee:	2b00      	cmp	r3, #0
    14f0:	d0eb      	beq.n	0x14ca
    14f2:	bd70      	pop	{r4, r5, r6, pc}
    14f4:	0a7c      	lsrs	r4, r7, #9
    14f6:	5010      	str	r0, [r2, r0]
    14f8:	b5f8      	push	{r3, r4, r5, r6, r7, lr}
    14fa:	7c82      	ldrb	r2, [r0, #18]
    14fc:	7c43      	ldrb	r3, [r0, #17]
    14fe:	0212      	lsls	r2, r2, #8
    1500:	431a      	orrs	r2, r3
    1502:	7cc3      	ldrb	r3, [r0, #19]
    1504:	000f      	movs	r7, r1
    1506:	041b      	lsls	r3, r3, #16
    1508:	431a      	orrs	r2, r3
    150a:	7d03      	ldrb	r3, [r0, #20]
    150c:	7dc1      	ldrb	r1, [r0, #23]
    150e:	061b      	lsls	r3, r3, #24
    1510:	4313      	orrs	r3, r2
    1512:	7d82      	ldrb	r2, [r0, #22]
    1514:	0209      	lsls	r1, r1, #8
    1516:	4311      	orrs	r1, r2
    1518:	4e20      	ldr	r6, [pc, #128]	; (0x159c)
    151a:	ba49      	rev16	r1, r1
    151c:	0032      	movs	r2, r6
    151e:	ba1b      	rev	r3, r3
    1520:	b289      	uxth	r1, r1
    1522:	2f01      	cmp	r7, #1
    1524:	d000      	beq.n	0x1528
    1526:	322c      	adds	r2, #44	; 0x2c
    1528:	4c1d      	ldr	r4, [pc, #116]	; (0x15a0)
    152a:	0249      	lsls	r1, r1, #9
    152c:	6262      	str	r2, [r4, #36]	; 0x24
    152e:	003a      	movs	r2, r7
    1530:	62e3      	str	r3, [r4, #44]	; 0x2c
    1532:	f7ff ffb9 	bl	0x14a8
    1536:	2800      	cmp	r0, #0
    1538:	d029      	beq.n	0x158e
    153a:	4b1a      	ldr	r3, [pc, #104]	; (0x15a4)
    153c:	6a1d      	ldr	r5, [r3, #32]
    153e:	2d3f      	cmp	r5, #63	; 0x3f
    1540:	d928      	bls.n	0x1594
    1542:	4a19      	ldr	r2, [pc, #100]	; (0x15a8)
    1544:	0020      	movs	r0, r4
    1546:	6813      	ldr	r3, [r2, #0]
    1548:	4918      	ldr	r1, [pc, #96]	; (0x15ac)
    154a:	3301      	adds	r3, #1
    154c:	6013      	str	r3, [r2, #0]
    154e:	233f      	movs	r3, #63	; 0x3f
    1550:	439d      	bics	r5, r3
    1552:	4b17      	ldr	r3, [pc, #92]	; (0x15b0)
    1554:	61a5      	str	r5, [r4, #24]
    1556:	62a3      	str	r3, [r4, #40]	; 0x28
    1558:	4b16      	ldr	r3, [pc, #88]	; (0x15b4)
    155a:	4a17      	ldr	r2, [pc, #92]	; (0x15b8)
    155c:	6223      	str	r3, [r4, #32]
    155e:	2380      	movs	r3, #128	; 0x80
    1560:	009b      	lsls	r3, r3, #2
    1562:	61e3      	str	r3, [r4, #28]
    1564:	2300      	movs	r3, #0
    1566:	6163      	str	r3, [r4, #20]
    1568:	f7fe ff9a 	bl	0x4a0
    156c:	353f      	adds	r5, #63	; 0x3f
    156e:	68a3      	ldr	r3, [r4, #8]
    1570:	09ad      	lsrs	r5, r5, #6
    1572:	195b      	adds	r3, r3, r5
    1574:	60a3      	str	r3, [r4, #8]
    1576:	68e3      	ldr	r3, [r4, #12]
    1578:	195d      	adds	r5, r3, r5
    157a:	60e5      	str	r5, [r4, #12]
    157c:	2f01      	cmp	r7, #1
    157e:	d107      	bne.n	0x1590
    1580:	2300      	movs	r3, #0
    1582:	0030      	movs	r0, r6
    1584:	60b4      	str	r4, [r6, #8]
    1586:	60f3      	str	r3, [r6, #12]
    1588:	74a7      	strb	r7, [r4, #18]
    158a:	f7ff f889 	bl	0x6a0
    158e:	bdf8      	pop	{r3, r4, r5, r6, r7, pc}
    1590:	63b4      	str	r4, [r6, #56]	; 0x38
    1592:	e7fc      	b.n	0x158e
    1594:	f7ff ff6a 	bl	0x146c
    1598:	e7f9      	b.n	0x158e
    159a:	46c0      	nop			; (mov r8, r8)
    159c:	0dc0      	lsrs	r0, r0, #23
    159e:	5010      	str	r0, [r2, r0]
    15a0:	0a4c      	lsrs	r4, r1, #9
    15a2:	5010      	str	r0, [r2, r0]
    15a4:	0a7c      	lsrs	r4, r7, #9
    15a6:	5010      	str	r0, [r2, r0]
    15a8:	0a20      	lsrs	r0, r4, #8
    15aa:	5010      	str	r0, [r2, r0]
    15ac:	3e0f      	subs	r6, #15
    15ae:	0000      	movs	r0, r0
    15b0:	3ddc      	subs	r5, #220	; 0xdc
    15b2:	0000      	movs	r0, r0
    15b4:	0b1c      	lsrs	r4, r3, #12
    15b6:	5010      	str	r0, [r2, r0]
    15b8:	146d      	asrs	r5, r5, #17
    15ba:	0000      	movs	r0, r0
    15bc:	b570      	push	{r4, r5, r6, lr}
    15be:	0005      	movs	r5, r0
    15c0:	480c      	ldr	r0, [pc, #48]	; (0x15f4)
    15c2:	f7ff f803 	bl	0x5cc
    15c6:	68a9      	ldr	r1, [r5, #8]
    15c8:	7903      	ldrb	r3, [r0, #4]
    15ca:	0004      	movs	r4, r0
    15cc:	4299      	cmp	r1, r3
    15ce:	d900      	bls.n	0x15d2
    15d0:	0019      	movs	r1, r3
    15d2:	2201      	movs	r2, #1
    15d4:	0028      	movs	r0, r5
    15d6:	f7ff ff67 	bl	0x14a8
    15da:	2800      	cmp	r0, #0
    15dc:	d009      	beq.n	0x15f2
    15de:	4a06      	ldr	r2, [pc, #24]	; (0x15f8)
    15e0:	4806      	ldr	r0, [pc, #24]	; (0x15fc)
    15e2:	6a13      	ldr	r3, [r2, #32]
    15e4:	7123      	strb	r3, [r4, #4]
    15e6:	6891      	ldr	r1, [r2, #8]
    15e8:	b2db      	uxtb	r3, r3
    15ea:	1acb      	subs	r3, r1, r3
    15ec:	6093      	str	r3, [r2, #8]
    15ee:	f7ff f889 	bl	0x704
    15f2:	bd70      	pop	{r4, r5, r6, pc}
    15f4:	0dc0      	lsrs	r0, r0, #23
    15f6:	5010      	str	r0, [r2, r0]
    15f8:	0a7c      	lsrs	r4, r7, #9
    15fa:	5010      	str	r0, [r2, r0]
    15fc:	146d      	asrs	r5, r5, #17
    15fe:	0000      	movs	r0, r0
    1600:	2100      	movs	r1, #0
    1602:	4b08      	ldr	r3, [pc, #32]	; (0x1624)
    1604:	b510      	push	{r4, lr}
    1606:	1d5a      	adds	r2, r3, #5
    1608:	77d1      	strb	r1, [r2, #31]
    160a:	6882      	ldr	r2, [r0, #8]
    160c:	428a      	cmp	r2, r1
    160e:	d006      	beq.n	0x161e
    1610:	7b01      	ldrb	r1, [r0, #12]
    1612:	2201      	movs	r2, #1
    1614:	297f      	cmp	r1, #127	; 0x7f
    1616:	d800      	bhi.n	0x161a
    1618:	1892      	adds	r2, r2, r2
    161a:	3305      	adds	r3, #5
    161c:	77da      	strb	r2, [r3, #31]
    161e:	f7ff ff25 	bl	0x146c
    1622:	bd10      	pop	{r4, pc}
    1624:	0a7c      	lsrs	r4, r7, #9
    1626:	5010      	str	r0, [r2, r0]
    1628:	4b1a      	ldr	r3, [pc, #104]	; (0x1694)
    162a:	6802      	ldr	r2, [r0, #0]
    162c:	6959      	ldr	r1, [r3, #20]
    162e:	b510      	push	{r4, lr}
    1630:	0004      	movs	r4, r0
    1632:	428a      	cmp	r2, r1
    1634:	d111      	bne.n	0x165a
    1636:	6840      	ldr	r0, [r0, #4]
    1638:	2800      	cmp	r0, #0
    163a:	d10e      	bne.n	0x165a
    163c:	699a      	ldr	r2, [r3, #24]
    163e:	6919      	ldr	r1, [r3, #16]
    1640:	428a      	cmp	r2, r1
    1642:	d10a      	bne.n	0x165a
    1644:	001a      	movs	r2, r3
    1646:	324c      	adds	r2, #76	; 0x4c
    1648:	7812      	ldrb	r2, [r2, #0]
    164a:	2a00      	cmp	r2, #0
    164c:	d000      	beq.n	0x1650
    164e:	69d8      	ldr	r0, [r3, #28]
    1650:	22fa      	movs	r2, #250	; 0xfa
    1652:	4911      	ldr	r1, [pc, #68]	; (0x1698)
    1654:	0092      	lsls	r2, r2, #2
    1656:	f7ff f9e5 	bl	0xa24
    165a:	cc0a      	ldmia	r4!, {r1, r3}
    165c:	f3ef 8410 	mrs	r4, PRIMASK
    1660:	b672      	cpsid	i
    1662:	4a0e      	ldr	r2, [pc, #56]	; (0x169c)
    1664:	6812      	ldr	r2, [r2, #0]
    1666:	4291      	cmp	r1, r2
    1668:	d111      	bne.n	0x168e
    166a:	2b00      	cmp	r3, #0
    166c:	d00c      	beq.n	0x1688
    166e:	2201      	movs	r2, #1
    1670:	4b0b      	ldr	r3, [pc, #44]	; (0x16a0)
    1672:	731a      	strb	r2, [r3, #12]
    1674:	3206      	adds	r2, #6
    1676:	73da      	strb	r2, [r3, #15]
    1678:	3219      	adds	r2, #25
    167a:	765a      	strb	r2, [r3, #25]
    167c:	3a1e      	subs	r2, #30
    167e:	769a      	strb	r2, [r3, #26]
    1680:	3305      	adds	r3, #5
    1682:	77da      	strb	r2, [r3, #31]
    1684:	f7ff fef2 	bl	0x146c
    1688:	4806      	ldr	r0, [pc, #24]	; (0x16a4)
    168a:	f7ff fbaf 	bl	0xdec
    168e:	f384 8810 	msr	PRIMASK, r4
    1692:	bd10      	pop	{r4, pc}
    1694:	0d3c      	lsrs	r4, r7, #20
    1696:	5010      	str	r0, [r2, r0]
    1698:	2000      	movs	r0, #0
    169a:	2004      	movs	r0, #4
    169c:	0a20      	lsrs	r0, r4, #8
    169e:	5010      	str	r0, [r2, r0]
    16a0:	0a7c      	lsrs	r4, r7, #9
    16a2:	5010      	str	r0, [r2, r0]
    16a4:	0a4c      	lsrs	r4, r1, #9
    16a6:	5010      	str	r0, [r2, r0]
    16a8:	2100      	movs	r1, #0
    16aa:	b510      	push	{r4, lr}
    16ac:	480f      	ldr	r0, [pc, #60]	; (0x16ec)
    16ae:	f7ff f991 	bl	0x9d4
    16b2:	480f      	ldr	r0, [pc, #60]	; (0x16f0)
    16b4:	2100      	movs	r1, #0
    16b6:	f7ff f98d 	bl	0x9d4
    16ba:	480e      	ldr	r0, [pc, #56]	; (0x16f4)
    16bc:	7a43      	ldrb	r3, [r0, #9]
    16be:	2b00      	cmp	r3, #0
    16c0:	d003      	beq.n	0x16ca
    16c2:	2280      	movs	r2, #128	; 0x80
    16c4:	4b0c      	ldr	r3, [pc, #48]	; (0x16f8)
    16c6:	0292      	lsls	r2, r2, #10
    16c8:	601a      	str	r2, [r3, #0]
    16ca:	2110      	movs	r1, #16
    16cc:	f7ff fc36 	bl	0xf3c
    16d0:	4b0a      	ldr	r3, [pc, #40]	; (0x16fc)
    16d2:	2200      	movs	r2, #0
    16d4:	0019      	movs	r1, r3
    16d6:	3329      	adds	r3, #41	; 0x29
    16d8:	3128      	adds	r1, #40	; 0x28
    16da:	700a      	strb	r2, [r1, #0]
    16dc:	701a      	strb	r2, [r3, #0]
    16de:	4b08      	ldr	r3, [pc, #32]	; (0x1700)
    16e0:	0019      	movs	r1, r3
    16e2:	3329      	adds	r3, #41	; 0x29
    16e4:	3128      	adds	r1, #40	; 0x28
    16e6:	700a      	strb	r2, [r1, #0]
    16e8:	701a      	strb	r2, [r3, #0]
    16ea:	bd10      	pop	{r4, pc}
    16ec:	0e58      	lsrs	r0, r3, #25
    16ee:	5010      	str	r0, [r2, r0]
    16f0:	0e24      	lsrs	r4, r4, #24
    16f2:	5010      	str	r0, [r2, r0]
    16f4:	0ab8      	lsrs	r0, r7, #10
    16f6:	5010      	str	r0, [r2, r0]
    16f8:	a01c      	add	r0, pc, #112	; (adr r0, 0x176c)
    16fa:	4001      	ands	r1, r0
    16fc:	0fc0      	lsrs	r0, r0, #31
    16fe:	5010      	str	r0, [r2, r0]
    1700:	0e84      	lsrs	r4, r0, #26
    1702:	5010      	str	r0, [r2, r0]
    1704:	2280      	movs	r2, #128	; 0x80
    1706:	4b05      	ldr	r3, [pc, #20]	; (0x171c)
    1708:	0292      	lsls	r2, r2, #10
    170a:	b510      	push	{r4, lr}
    170c:	601a      	str	r2, [r3, #0]
    170e:	2900      	cmp	r1, #0
    1710:	d003      	beq.n	0x171a
    1712:	f7ff fc19 	bl	0xf48
    1716:	f7ff ffc7 	bl	0x16a8
    171a:	bd10      	pop	{r4, pc}
    171c:	a01c      	add	r0, pc, #112	; (adr r0, 0x1790)
    171e:	4001      	ands	r1, r0
    1720:	2260      	movs	r2, #96	; 0x60
    1722:	780b      	ldrb	r3, [r1, #0]
    1724:	2000      	movs	r0, #0
    1726:	b510      	push	{r4, lr}
    1728:	401a      	ands	r2, r3
    172a:	2a40      	cmp	r2, #64	; 0x40
    172c:	d113      	bne.n	0x1756
    172e:	b25b      	sxtb	r3, r3
    1730:	784a      	ldrb	r2, [r1, #1]
    1732:	4283      	cmp	r3, r0
    1734:	da10      	bge.n	0x1758
    1736:	2a42      	cmp	r2, #66	; 0x42
    1738:	d10d      	bne.n	0x1756
    173a:	88cc      	ldrh	r4, [r1, #6]
    173c:	2c10      	cmp	r4, #16
    173e:	d10a      	bne.n	0x1756
    1740:	0021      	movs	r1, r4
    1742:	4809      	ldr	r0, [pc, #36]	; (0x1768)
    1744:	f7ff fe5a 	bl	0x13fc
    1748:	0022      	movs	r2, r4
    174a:	4908      	ldr	r1, [pc, #32]	; (0x176c)
    174c:	f000 ff66 	bl	0x261c
    1750:	f7ff f828 	bl	0x7a4
    1754:	2001      	movs	r0, #1
    1756:	bd10      	pop	{r4, pc}
    1758:	2a41      	cmp	r2, #65	; 0x41
    175a:	d1fc      	bne.n	0x1756
    175c:	f7ff ffa4 	bl	0x16a8
    1760:	f7ff f808 	bl	0x774
    1764:	e7f6      	b.n	0x1754
    1766:	46c0      	nop			; (mov r8, r8)
    1768:	0f68      	lsrs	r0, r5, #29
    176a:	5010      	str	r0, [r2, r0]
    176c:	0ab8      	lsrs	r0, r7, #10
    176e:	5010      	str	r0, [r2, r0]
    1770:	b5f8      	push	{r3, r4, r5, r6, r7, lr}
    1772:	4e18      	ldr	r6, [pc, #96]	; (0x17d4)
    1774:	24c0      	movs	r4, #192	; 0xc0
    1776:	0015      	movs	r5, r2
    1778:	46b4      	mov	ip, r6
    177a:	0564      	lsls	r4, r4, #21
    177c:	001e      	movs	r6, r3
    177e:	4316      	orrs	r6, r2
    1780:	432e      	orrs	r6, r5
    1782:	d103      	bne.n	0x178c
    1784:	2003      	movs	r0, #3
    1786:	f7ff fa0f 	bl	0xba8
    178a:	bdf8      	pop	{r3, r4, r5, r6, r7, pc}
    178c:	6a27      	ldr	r7, [r4, #32]
    178e:	6a66      	ldr	r6, [r4, #36]	; 0x24
    1790:	2a00      	cmp	r2, #0
    1792:	d015      	beq.n	0x17c0
    1794:	19bf      	adds	r7, r7, r6
    1796:	2f0d      	cmp	r7, #13
    1798:	d812      	bhi.n	0x17c0
    179a:	1e07      	subs	r7, r0, #0
    179c:	d001      	beq.n	0x17a2
    179e:	7807      	ldrb	r7, [r0, #0]
    17a0:	3001      	adds	r0, #1
    17a2:	6627      	str	r7, [r4, #96]	; 0x60
    17a4:	3a01      	subs	r2, #1
    17a6:	2e00      	cmp	r6, #0
    17a8:	d0e8      	beq.n	0x177c
    17aa:	6e26      	ldr	r6, [r4, #96]	; 0x60
    17ac:	2b00      	cmp	r3, #0
    17ae:	d001      	beq.n	0x17b4
    17b0:	3b01      	subs	r3, #1
    17b2:	e7e3      	b.n	0x177c
    17b4:	2900      	cmp	r1, #0
    17b6:	d001      	beq.n	0x17bc
    17b8:	700e      	strb	r6, [r1, #0]
    17ba:	3101      	adds	r1, #1
    17bc:	3d01      	subs	r5, #1
    17be:	e7dd      	b.n	0x177c
    17c0:	2e00      	cmp	r6, #0
    17c2:	d1f2      	bne.n	0x17aa
    17c4:	4666      	mov	r6, ip
    17c6:	27c0      	movs	r7, #192	; 0xc0
    17c8:	6836      	ldr	r6, [r6, #0]
    17ca:	02bf      	lsls	r7, r7, #10
    17cc:	423e      	tst	r6, r7
    17ce:	d0d5      	beq.n	0x177c
    17d0:	e7d8      	b.n	0x1784
    17d2:	46c0      	nop			; (mov r8, r8)
    17d4:	801c      	strh	r4, [r3, #0]
    17d6:	4001      	ands	r1, r0
    17d8:	b510      	push	{r4, lr}
    17da:	000c      	movs	r4, r1
    17dc:	0001      	movs	r1, r0
    17de:	2003      	movs	r0, #3
    17e0:	f7ff f9ea 	bl	0xbb8
    17e4:	2280      	movs	r2, #128	; 0x80
    17e6:	2304      	movs	r3, #4
    17e8:	0021      	movs	r1, r4
    17ea:	2000      	movs	r0, #0
    17ec:	0052      	lsls	r2, r2, #1
    17ee:	f7ff ffbf 	bl	0x1770
    17f2:	bd10      	pop	{r4, pc}
    17f4:	23f0      	movs	r3, #240	; 0xf0
    17f6:	b510      	push	{r4, lr}
    17f8:	061b      	lsls	r3, r3, #24
    17fa:	18c0      	adds	r0, r0, r3
    17fc:	f7ff ffec 	bl	0x17d8
    1800:	2000      	movs	r0, #0
    1802:	bd10      	pop	{r4, pc}
    1804:	b510      	push	{r4, lr}
    1806:	2002      	movs	r0, #2
    1808:	f7ff f9ce 	bl	0xba8
    180c:	23c0      	movs	r3, #192	; 0xc0
    180e:	2206      	movs	r2, #6
    1810:	055b      	lsls	r3, r3, #21
    1812:	661a      	str	r2, [r3, #96]	; 0x60
    1814:	2200      	movs	r2, #0
    1816:	2301      	movs	r3, #1
    1818:	0011      	movs	r1, r2
    181a:	0010      	movs	r0, r2
    181c:	f7ff ffa8 	bl	0x1770
    1820:	bd10      	pop	{r4, pc}
    1822:	be00      	bkpt	0x0000
    1824:	b573      	push	{r0, r1, r4, r5, r6, lr}
    1826:	26c0      	movs	r6, #192	; 0xc0
    1828:	2401      	movs	r4, #1
    182a:	0576      	lsls	r6, r6, #21
    182c:	2002      	movs	r0, #2
    182e:	f7ff f9bb 	bl	0xba8
    1832:	2305      	movs	r3, #5
    1834:	6633      	str	r3, [r6, #96]	; 0x60
    1836:	466b      	mov	r3, sp
    1838:	1ddd      	adds	r5, r3, #7
    183a:	0022      	movs	r2, r4
    183c:	0023      	movs	r3, r4
    183e:	0029      	movs	r1, r5
    1840:	2000      	movs	r0, #0
    1842:	f7ff ff95 	bl	0x1770
    1846:	782b      	ldrb	r3, [r5, #0]
    1848:	4223      	tst	r3, r4
    184a:	d005      	beq.n	0x1858
    184c:	4b03      	ldr	r3, [pc, #12]	; (0x185c)
    184e:	681a      	ldr	r2, [r3, #0]
    1850:	23c0      	movs	r3, #192	; 0xc0
    1852:	029b      	lsls	r3, r3, #10
    1854:	421a      	tst	r2, r3
    1856:	d0e9      	beq.n	0x182c
    1858:	bd73      	pop	{r0, r1, r4, r5, r6, pc}
    185a:	46c0      	nop			; (mov r8, r8)
    185c:	801c      	strh	r4, [r3, #0]
    185e:	4001      	ands	r1, r0
    1860:	b570      	push	{r4, r5, r6, lr}
    1862:	0005      	movs	r5, r0
    1864:	000c      	movs	r4, r1
    1866:	f7ff ffcd 	bl	0x1804
    186a:	0029      	movs	r1, r5
    186c:	0020      	movs	r0, r4
    186e:	f7ff f9a3 	bl	0xbb8
    1872:	2200      	movs	r2, #0
    1874:	2304      	movs	r3, #4
    1876:	0011      	movs	r1, r2
    1878:	0010      	movs	r0, r2
    187a:	f7ff ff79 	bl	0x1770
    187e:	f7ff ffd1 	bl	0x1824
    1882:	bd70      	pop	{r4, r5, r6, pc}
    1884:	23f0      	movs	r3, #240	; 0xf0
    1886:	b510      	push	{r4, lr}
    1888:	061b      	lsls	r3, r3, #24
    188a:	18c0      	adds	r0, r0, r3
    188c:	2120      	movs	r1, #32
    188e:	f7ff ffe7 	bl	0x1860
    1892:	2000      	movs	r0, #0
    1894:	bd10      	pop	{r4, pc}
    1896:	b570      	push	{r4, r5, r6, lr}
    1898:	0005      	movs	r5, r0
    189a:	000c      	movs	r4, r1
    189c:	f7ff ffb2 	bl	0x1804
    18a0:	0029      	movs	r1, r5
    18a2:	2002      	movs	r0, #2
    18a4:	f7ff f988 	bl	0xbb8
    18a8:	2280      	movs	r2, #128	; 0x80
    18aa:	2304      	movs	r3, #4
    18ac:	2100      	movs	r1, #0
    18ae:	0020      	movs	r0, r4
    18b0:	0052      	lsls	r2, r2, #1
    18b2:	f7ff ff5d 	bl	0x1770
    18b6:	f7ff ffb5 	bl	0x1824
    18ba:	bd70      	pop	{r4, r5, r6, pc}
    18bc:	23f0      	movs	r3, #240	; 0xf0
    18be:	b510      	push	{r4, lr}
    18c0:	061b      	lsls	r3, r3, #24
    18c2:	18c0      	adds	r0, r0, r3
    18c4:	f7ff ffe7 	bl	0x1896
    18c8:	2000      	movs	r0, #0
    18ca:	bd10      	pop	{r4, pc}
    18cc:	b5f0      	push	{r4, r5, r6, r7, lr}
    18ce:	0006      	movs	r6, r0
    18d0:	2080      	movs	r0, #128	; 0x80
    18d2:	b085      	sub	sp, #20
    18d4:	0440      	lsls	r0, r0, #17
    18d6:	000d      	movs	r5, r1
    18d8:	f7fe fc5a 	bl	0x190
    18dc:	4b7d      	ldr	r3, [pc, #500]	; (0x1ad4)
    18de:	681b      	ldr	r3, [r3, #0]
    18e0:	079b      	lsls	r3, r3, #30
    18e2:	d438      	bmi.n	0x1956
    18e4:	2103      	movs	r1, #3
    18e6:	4b7c      	ldr	r3, [pc, #496]	; (0x1ad8)
    18e8:	4a7c      	ldr	r2, [pc, #496]	; (0x1adc)
    18ea:	4c7d      	ldr	r4, [pc, #500]	; (0x1ae0)
    18ec:	601a      	str	r2, [r3, #0]
    18ee:	4b7d      	ldr	r3, [pc, #500]	; (0x1ae4)
    18f0:	6019      	str	r1, [r3, #0]
    18f2:	4b7d      	ldr	r3, [pc, #500]	; (0x1ae8)
    18f4:	497d      	ldr	r1, [pc, #500]	; (0x1aec)
    18f6:	67a3      	str	r3, [r4, #120]	; 0x78
    18f8:	3bff      	subs	r3, #255	; 0xff
    18fa:	3bff      	subs	r3, #255	; 0xff
    18fc:	600b      	str	r3, [r1, #0]
    18fe:	6c61      	ldr	r1, [r4, #68]	; 0x44
    1900:	4219      	tst	r1, r3
    1902:	d0fc      	beq.n	0x18fe
    1904:	2380      	movs	r3, #128	; 0x80
    1906:	005b      	lsls	r3, r3, #1
    1908:	6423      	str	r3, [r4, #64]	; 0x40
    190a:	65a3      	str	r3, [r4, #88]	; 0x58
    190c:	4b78      	ldr	r3, [pc, #480]	; (0x1af0)
    190e:	601a      	str	r2, [r3, #0]
    1910:	685a      	ldr	r2, [r3, #4]
    1912:	2a00      	cmp	r2, #0
    1914:	dafc      	bge.n	0x1910
    1916:	2080      	movs	r0, #128	; 0x80
    1918:	0140      	lsls	r0, r0, #5
    191a:	f7fe fc3c 	bl	0x196
    191e:	2201      	movs	r2, #1
    1920:	4b74      	ldr	r3, [pc, #464]	; (0x1af4)
    1922:	2121      	movs	r1, #33	; 0x21
    1924:	601a      	str	r2, [r3, #0]
    1926:	3263      	adds	r2, #99	; 0x63
    1928:	609a      	str	r2, [r3, #8]
    192a:	22aa      	movs	r2, #170	; 0xaa
    192c:	02d2      	lsls	r2, r2, #11
    192e:	60da      	str	r2, [r3, #12]
    1930:	4a71      	ldr	r2, [pc, #452]	; (0x1af8)
    1932:	6011      	str	r1, [r2, #0]
    1934:	6819      	ldr	r1, [r3, #0]
    1936:	2900      	cmp	r1, #0
    1938:	dafc      	bge.n	0x1934
    193a:	2308      	movs	r3, #8
    193c:	6013      	str	r3, [r2, #0]
    193e:	2300      	movs	r3, #0
    1940:	63e3      	str	r3, [r4, #60]	; 0x3c
    1942:	2382      	movs	r3, #130	; 0x82
    1944:	2201      	movs	r2, #1
    1946:	011b      	lsls	r3, r3, #4
    1948:	6563      	str	r3, [r4, #84]	; 0x54
    194a:	4b6c      	ldr	r3, [pc, #432]	; (0x1afc)
    194c:	601a      	str	r2, [r3, #0]
    194e:	2302      	movs	r3, #2
    1950:	6c62      	ldr	r2, [r4, #68]	; 0x44
    1952:	421a      	tst	r2, r3
    1954:	d0fc      	beq.n	0x1950
    1956:	2080      	movs	r0, #128	; 0x80
    1958:	0440      	lsls	r0, r0, #17
    195a:	f7fe fc1e 	bl	0x19a
    195e:	220c      	movs	r2, #12
    1960:	4b67      	ldr	r3, [pc, #412]	; (0x1b00)
    1962:	2180      	movs	r1, #128	; 0x80
    1964:	62da      	str	r2, [r3, #44]	; 0x2c
    1966:	4b67      	ldr	r3, [pc, #412]	; (0x1b04)
    1968:	32f5      	adds	r2, #245	; 0xf5
    196a:	32ff      	adds	r2, #255	; 0xff
    196c:	601a      	str	r2, [r3, #0]
    196e:	2201      	movs	r2, #1
    1970:	4b65      	ldr	r3, [pc, #404]	; (0x1b08)
    1972:	4866      	ldr	r0, [pc, #408]	; (0x1b0c)
    1974:	601a      	str	r2, [r3, #0]
    1976:	0149      	lsls	r1, r1, #5
    1978:	f7ff fae0 	bl	0xf3c
    197c:	4b64      	ldr	r3, [pc, #400]	; (0x1b10)
    197e:	601e      	str	r6, [r3, #0]
    1980:	43eb      	mvns	r3, r5
    1982:	079b      	lsls	r3, r3, #30
    1984:	d100      	bne.n	0x1988
    1986:	2500      	movs	r5, #0
    1988:	2e00      	cmp	r6, #0
    198a:	d001      	beq.n	0x1990
    198c:	f7ff fab4 	bl	0xef8
    1990:	4c60      	ldr	r4, [pc, #384]	; (0x1b14)
    1992:	4b61      	ldr	r3, [pc, #388]	; (0x1b18)
    1994:	0020      	movs	r0, r4
    1996:	6819      	ldr	r1, [r3, #0]
    1998:	f7ff f8bc 	bl	0xb14
    199c:	4b5f      	ldr	r3, [pc, #380]	; (0x1b1c)
    199e:	1da0      	adds	r0, r4, #6
    19a0:	6819      	ldr	r1, [r3, #0]
    19a2:	f7ff f8b7 	bl	0xb14
    19a6:	2601      	movs	r6, #1
    19a8:	4c5d      	ldr	r4, [pc, #372]	; (0x1b20)
    19aa:	2d00      	cmp	r5, #0
    19ac:	d01f      	beq.n	0x19ee
    19ae:	4f5d      	ldr	r7, [pc, #372]	; (0x1b24)
    19b0:	2220      	movs	r2, #32
    19b2:	0021      	movs	r1, r4
    19b4:	0038      	movs	r0, r7
    19b6:	f000 fe31 	bl	0x261c
    19ba:	2320      	movs	r3, #32
    19bc:	70bb      	strb	r3, [r7, #2]
    19be:	2300      	movs	r3, #0
    19c0:	2601      	movs	r6, #1
    19c2:	70fb      	strb	r3, [r7, #3]
    19c4:	002b      	movs	r3, r5
    19c6:	4033      	ands	r3, r6
    19c8:	9303      	str	r3, [sp, #12]
    19ca:	4235      	tst	r5, r6
    19cc:	d007      	beq.n	0x19de
    19ce:	0021      	movs	r1, r4
    19d0:	0038      	movs	r0, r7
    19d2:	2217      	movs	r2, #23
    19d4:	3120      	adds	r1, #32
    19d6:	3009      	adds	r0, #9
    19d8:	f000 fe20 	bl	0x261c
    19dc:	2600      	movs	r6, #0
    19de:	2301      	movs	r3, #1
    19e0:	713b      	strb	r3, [r7, #4]
    19e2:	2300      	movs	r3, #0
    19e4:	72fb      	strb	r3, [r7, #11]
    19e6:	9b03      	ldr	r3, [sp, #12]
    19e8:	003c      	movs	r4, r7
    19ea:	2b00      	cmp	r3, #0
    19ec:	d108      	bne.n	0x1a00
    19ee:	0021      	movs	r1, r4
    19f0:	4f4d      	ldr	r7, [pc, #308]	; (0x1b28)
    19f2:	4a4e      	ldr	r2, [pc, #312]	; (0x1b2c)
    19f4:	0038      	movs	r0, r7
    19f6:	3109      	adds	r1, #9
    19f8:	f7fe fdae 	bl	0x558
    19fc:	4b4c      	ldr	r3, [pc, #304]	; (0x1b30)
    19fe:	607b      	str	r3, [r7, #4]
    1a00:	07ab      	lsls	r3, r5, #30
    1a02:	d40f      	bmi.n	0x1a24
    1a04:	2117      	movs	r1, #23
    1a06:	4371      	muls	r1, r6
    1a08:	4e4a      	ldr	r6, [pc, #296]	; (0x1b34)
    1a0a:	3109      	adds	r1, #9
    1a0c:	4a4a      	ldr	r2, [pc, #296]	; (0x1b38)
    1a0e:	0030      	movs	r0, r6
    1a10:	1861      	adds	r1, r4, r1
    1a12:	f7fe fda1 	bl	0x558
    1a16:	4b49      	ldr	r3, [pc, #292]	; (0x1b3c)
    1a18:	4a49      	ldr	r2, [pc, #292]	; (0x1b40)
    1a1a:	601a      	str	r2, [r3, #0]
    1a1c:	4a49      	ldr	r2, [pc, #292]	; (0x1b44)
    1a1e:	6053      	str	r3, [r2, #4]
    1a20:	4b49      	ldr	r3, [pc, #292]	; (0x1b48)
    1a22:	6073      	str	r3, [r6, #4]
    1a24:	4b49      	ldr	r3, [pc, #292]	; (0x1b4c)
    1a26:	2d01      	cmp	r5, #1
    1a28:	d100      	bne.n	0x1a2c
    1a2a:	3304      	adds	r3, #4
    1a2c:	4d48      	ldr	r5, [pc, #288]	; (0x1b50)
    1a2e:	4a49      	ldr	r2, [pc, #292]	; (0x1b54)
    1a30:	60ec      	str	r4, [r5, #12]
    1a32:	2400      	movs	r4, #0
    1a34:	4f48      	ldr	r7, [pc, #288]	; (0x1b58)
    1a36:	612b      	str	r3, [r5, #16]
    1a38:	4b48      	ldr	r3, [pc, #288]	; (0x1b5c)
    1a3a:	0021      	movs	r1, r4
    1a3c:	602a      	str	r2, [r5, #0]
    1a3e:	60ab      	str	r3, [r5, #8]
    1a40:	2201      	movs	r2, #1
    1a42:	2340      	movs	r3, #64	; 0x40
    1a44:	9400      	str	r4, [sp, #0]
    1a46:	0038      	movs	r0, r7
    1a48:	f7fe fd72 	bl	0x530
    1a4c:	4e44      	ldr	r6, [pc, #272]	; (0x1b60)
    1a4e:	0022      	movs	r2, r4
    1a50:	0021      	movs	r1, r4
    1a52:	2340      	movs	r3, #64	; 0x40
    1a54:	9400      	str	r4, [sp, #0]
    1a56:	0030      	movs	r0, r6
    1a58:	f7fe fd6a 	bl	0x530
    1a5c:	2380      	movs	r3, #128	; 0x80
    1a5e:	0021      	movs	r1, r4
    1a60:	005b      	lsls	r3, r3, #1
    1a62:	0038      	movs	r0, r7
    1a64:	832b      	strh	r3, [r5, #24]
    1a66:	f7fe fd2f 	bl	0x4c8
    1a6a:	2380      	movs	r3, #128	; 0x80
    1a6c:	0021      	movs	r1, r4
    1a6e:	005b      	lsls	r3, r3, #1
    1a70:	0030      	movs	r0, r6
    1a72:	832b      	strh	r3, [r5, #24]
    1a74:	f7fe fd28 	bl	0x4c8
    1a78:	23c0      	movs	r3, #192	; 0xc0
    1a7a:	005b      	lsls	r3, r3, #1
    1a7c:	832b      	strh	r3, [r5, #24]
    1a7e:	3401      	adds	r4, #1
    1a80:	4b38      	ldr	r3, [pc, #224]	; (0x1b64)
    1a82:	00a2      	lsls	r2, r4, #2
    1a84:	58d0      	ldr	r0, [r2, r3]
    1a86:	2800      	cmp	r0, #0
    1a88:	d002      	beq.n	0x1a90
    1a8a:	2100      	movs	r1, #0
    1a8c:	f7fe fd1c 	bl	0x4c8
    1a90:	3401      	adds	r4, #1
    1a92:	2c05      	cmp	r4, #5
    1a94:	d1f4      	bne.n	0x1a80
    1a96:	4b34      	ldr	r3, [pc, #208]	; (0x1b68)
    1a98:	2000      	movs	r0, #0
    1a9a:	606b      	str	r3, [r5, #4]
    1a9c:	4b33      	ldr	r3, [pc, #204]	; (0x1b6c)
    1a9e:	4a34      	ldr	r2, [pc, #208]	; (0x1b70)
    1aa0:	001c      	movs	r4, r3
    1aa2:	0019      	movs	r1, r3
    1aa4:	3304      	adds	r3, #4
    1aa6:	6008      	str	r0, [r1, #0]
    1aa8:	4293      	cmp	r3, r2
    1aaa:	d1fa      	bne.n	0x1aa2
    1aac:	2309      	movs	r3, #9
    1aae:	6763      	str	r3, [r4, #116]	; 0x74
    1ab0:	3303      	adds	r3, #3
    1ab2:	67a3      	str	r3, [r4, #120]	; 0x78
    1ab4:	3b0b      	subs	r3, #11
    1ab6:	6423      	str	r3, [r4, #64]	; 0x40
    1ab8:	f7ff fa08 	bl	0xecc
    1abc:	4b2d      	ldr	r3, [pc, #180]	; (0x1b74)
    1abe:	4a2e      	ldr	r2, [pc, #184]	; (0x1b78)
    1ac0:	64e3      	str	r3, [r4, #76]	; 0x4c
    1ac2:	4b2e      	ldr	r3, [pc, #184]	; (0x1b7c)
    1ac4:	601a      	str	r2, [r3, #0]
    1ac6:	2320      	movs	r3, #32
    1ac8:	4a2d      	ldr	r2, [pc, #180]	; (0x1b80)
    1aca:	6013      	str	r3, [r2, #0]
    1acc:	4a2d      	ldr	r2, [pc, #180]	; (0x1b84)
    1ace:	6013      	str	r3, [r2, #0]
    1ad0:	f7fe fbfc 	bl	0x2cc
    1ad4:	c000      	stmia	r0!, {}
    1ad6:	4006      	ands	r6, r0
    1ad8:	0000      	movs	r0, r0
    1ada:	4006      	ands	r6, r0
    1adc:	b000      	add	sp, #0
    1ade:	00fa      	lsls	r2, r7, #3
    1ae0:	8000      	strh	r0, [r0, #0]
    1ae2:	4000      	ands	r0, r0
    1ae4:	b030      	add	sp, #192	; 0xc0
    1ae6:	4000      	ands	r0, r0
    1ae8:	01ff      	lsls	r7, r7, #7
    1aea:	0000      	movs	r0, r0
    1aec:	b03c      	add	sp, #240	; 0xf0
    1aee:	4000      	ands	r0, r0
    1af0:	4000      	ands	r0, r0
    1af2:	4002      	ands	r2, r0
    1af4:	8000      	strh	r0, [r0, #0]
    1af6:	4002      	ands	r2, r0
    1af8:	b004      	add	sp, #16
    1afa:	4002      	ands	r2, r0
    1afc:	a03c      	add	r0, pc, #240	; (adr r0, 0x1bf0)
    1afe:	4000      	ands	r0, r0
    1b00:	8000      	strh	r0, [r0, #0]
    1b02:	4005      	ands	r5, r0
    1b04:	a02c      	add	r0, pc, #176	; (adr r0, 0x1bb8)
    1b06:	4005      	ands	r5, r0
    1b08:	3000      	adds	r0, #0
    1b0a:	1400      	asrs	r0, r0, #16
    1b0c:	0000      	movs	r0, r0
    1b0e:	5010      	str	r0, [r2, r0]
    1b10:	0f64      	lsrs	r4, r4, #29
    1b12:	5010      	str	r0, [r2, r0]
    1b14:	0eb5      	lsrs	r5, r6, #26
    1b16:	5010      	str	r0, [r2, r0]
    1b18:	0040      	lsls	r0, r0, #1
    1b1a:	4000      	ands	r0, r0
    1b1c:	0050      	lsls	r0, r2, #1
    1b1e:	0000      	movs	r0, r0
    1b20:	3e11      	subs	r6, #17
    1b22:	0000      	movs	r0, r0
    1b24:	0d1c      	lsrs	r4, r3, #20
    1b26:	5010      	str	r0, [r2, r0]
    1b28:	0e18      	lsrs	r0, r3, #24
    1b2a:	5010      	str	r0, [r2, r0]
    1b2c:	3dd4      	subs	r5, #212	; 0xd4
    1b2e:	0000      	movs	r0, r0
    1b30:	0fad      	lsrs	r5, r5, #30
    1b32:	0000      	movs	r0, r0
    1b34:	0e50      	lsrs	r0, r2, #25
    1b36:	5010      	str	r0, [r2, r0]
    1b38:	3f34      	subs	r7, #52	; 0x34
    1b3a:	0000      	movs	r0, r0
    1b3c:	0aa4      	lsrs	r4, r4, #10
    1b3e:	5010      	str	r0, [r2, r0]
    1b40:	3de4      	subs	r5, #228	; 0xe4
    1b42:	0000      	movs	r0, r0
    1b44:	0e58      	lsrs	r0, r3, #25
    1b46:	5010      	str	r0, [r2, r0]
    1b48:	1721      	asrs	r1, r4, #28
    1b4a:	0000      	movs	r0, r0
    1b4c:	3e5c      	subs	r6, #92	; 0x5c
    1b4e:	0000      	movs	r0, r0
    1b50:	09ec      	lsrs	r4, r5, #7
    1b52:	5010      	str	r0, [r2, r0]
    1b54:	3e48      	subs	r6, #72	; 0x48
    1b56:	0000      	movs	r0, r0
    1b58:	0f68      	lsrs	r0, r5, #29
    1b5a:	5010      	str	r0, [r2, r0]
    1b5c:	0b95      	lsrs	r5, r2, #14
    1b5e:	0000      	movs	r0, r0
    1b60:	0f94      	lsrs	r4, r2, #30
    1b62:	5010      	str	r0, [r2, r0]
    1b64:	0a08      	lsrs	r0, r1, #8
    1b66:	5010      	str	r0, [r2, r0]
    1b68:	1705      	asrs	r5, r0, #28
    1b6a:	0000      	movs	r0, r0
    1b6c:	0000      	movs	r0, r0
    1b6e:	5011      	str	r1, [r2, r0]
    1b70:	0084      	lsls	r4, r0, #2
    1b72:	5011      	str	r1, [r2, r0]
    1b74:	0000      	movs	r0, r0
    1b76:	2001      	movs	r0, #1
    1b78:	13f0      	asrs	r0, r6, #15
    1b7a:	0001      	movs	r1, r0
    1b7c:	0090      	lsls	r0, r2, #2
    1b7e:	5011      	str	r1, [r2, r0]
    1b80:	e280      	b.n	0x2084
    1b82:	e000      	b.n	0x1b86
    1b84:	e100      	b.n	0x1d88
    1b86:	e000      	b.n	0x1b8a
    1b88:	4b02      	ldr	r3, [pc, #8]	; (0x1b94)
    1b8a:	b510      	push	{r4, lr}
    1b8c:	68d8      	ldr	r0, [r3, #12]
    1b8e:	6919      	ldr	r1, [r3, #16]
    1b90:	f7ff fe9c 	bl	0x18cc
    1b94:	8000      	strh	r0, [r0, #0]
    1b96:	4005      	ands	r5, r0
    1b98:	4b24      	ldr	r3, [pc, #144]	; (0x1c2c)
    1b9a:	b5f7      	push	{r0, r1, r2, r4, r5, r6, r7, lr}
    1b9c:	681a      	ldr	r2, [r3, #0]
    1b9e:	4b24      	ldr	r3, [pc, #144]	; (0x1c30)
    1ba0:	6884      	ldr	r4, [r0, #8]
    1ba2:	601a      	str	r2, [r3, #0]
    1ba4:	0002      	movs	r2, r0
    1ba6:	69e5      	ldr	r5, [r4, #28]
    1ba8:	3229      	adds	r2, #41	; 0x29
    1baa:	6963      	ldr	r3, [r4, #20]
    1bac:	7812      	ldrb	r2, [r2, #0]
    1bae:	1e6e      	subs	r6, r5, #1
    1bb0:	401e      	ands	r6, r3
    1bb2:	9201      	str	r2, [sp, #4]
    1bb4:	2a00      	cmp	r2, #0
    1bb6:	d015      	beq.n	0x1be4
    1bb8:	2e00      	cmp	r6, #0
    1bba:	d003      	beq.n	0x1bc4
    1bbc:	0020      	movs	r0, r4
    1bbe:	f7ff f915 	bl	0xdec
    1bc2:	bdf7      	pop	{r0, r1, r2, r4, r5, r6, r7, pc}
    1bc4:	69a2      	ldr	r2, [r4, #24]
    1bc6:	1959      	adds	r1, r3, r5
    1bc8:	4291      	cmp	r1, r2
    1bca:	d900      	bls.n	0x1bce
    1bcc:	1ad5      	subs	r5, r2, r3
    1bce:	2d00      	cmp	r5, #0
    1bd0:	d0f4      	beq.n	0x1bbc
    1bd2:	6aa3      	ldr	r3, [r4, #40]	; 0x28
    1bd4:	4a17      	ldr	r2, [pc, #92]	; (0x1c34)
    1bd6:	791b      	ldrb	r3, [r3, #4]
    1bd8:	0028      	movs	r0, r5
    1bda:	5ad3      	ldrh	r3, [r2, r3]
    1bdc:	4798      	blx	r3
    1bde:	2800      	cmp	r0, #0
    1be0:	d0ec      	beq.n	0x1bbc
    1be2:	e7ee      	b.n	0x1bc2
    1be4:	f7fe fcf2 	bl	0x5cc
    1be8:	6961      	ldr	r1, [r4, #20]
    1bea:	69a2      	ldr	r2, [r4, #24]
    1bec:	3140      	adds	r1, #64	; 0x40
    1bee:	0007      	movs	r7, r0
    1bf0:	69e3      	ldr	r3, [r4, #28]
    1bf2:	4291      	cmp	r1, r2
    1bf4:	d312      	bcc.n	0x1c1c
    1bf6:	0015      	movs	r5, r2
    1bf8:	1e59      	subs	r1, r3, #1
    1bfa:	400d      	ands	r5, r1
    1bfc:	420a      	tst	r2, r1
    1bfe:	d100      	bne.n	0x1c02
    1c00:	001d      	movs	r5, r3
    1c02:	2e00      	cmp	r6, #0
    1c04:	d103      	bne.n	0x1c0e
    1c06:	69e1      	ldr	r1, [r4, #28]
    1c08:	6a20      	ldr	r0, [r4, #32]
    1c0a:	f7ff f997 	bl	0xf3c
    1c0e:	6a23      	ldr	r3, [r4, #32]
    1c10:	793a      	ldrb	r2, [r7, #4]
    1c12:	6839      	ldr	r1, [r7, #0]
    1c14:	1998      	adds	r0, r3, r6
    1c16:	f000 fd01 	bl	0x261c
    1c1a:	e7d8      	b.n	0x1bce
    1c1c:	001d      	movs	r5, r3
    1c1e:	0033      	movs	r3, r6
    1c20:	3340      	adds	r3, #64	; 0x40
    1c22:	42ab      	cmp	r3, r5
    1c24:	d2ed      	bcs.n	0x1c02
    1c26:	9d01      	ldr	r5, [sp, #4]
    1c28:	e7eb      	b.n	0x1c02
    1c2a:	46c0      	nop			; (mov r8, r8)
    1c2c:	0f64      	lsrs	r4, r4, #29
    1c2e:	5010      	str	r0, [r2, r0]
    1c30:	0014      	movs	r4, r2
    1c32:	d000      	beq.n	0x1c36
    1c34:	046c      	lsls	r4, r5, #17
    1c36:	0000      	movs	r0, r0
    1c38:	b5f8      	push	{r3, r4, r5, r6, r7, lr}
    1c3a:	0006      	movs	r6, r0
    1c3c:	f7fe fcc6 	bl	0x5cc
    1c40:	7903      	ldrb	r3, [r0, #4]
    1c42:	2b1f      	cmp	r3, #31
    1c44:	d000      	beq.n	0x1c48
    1c46:	e0a0      	b.n	0x1d8a
    1c48:	6805      	ldr	r5, [r0, #0]
    1c4a:	4b55      	ldr	r3, [pc, #340]	; (0x1da0)
    1c4c:	682a      	ldr	r2, [r5, #0]
    1c4e:	429a      	cmp	r2, r3
    1c50:	d000      	beq.n	0x1c54
    1c52:	e09a      	b.n	0x1d8a
    1c54:	7b6b      	ldrb	r3, [r5, #13]
    1c56:	2b00      	cmp	r3, #0
    1c58:	d000      	beq.n	0x1c5c
    1c5a:	e096      	b.n	0x1d8a
    1c5c:	7b29      	ldrb	r1, [r5, #12]
    1c5e:	337f      	adds	r3, #127	; 0x7f
    1c60:	000a      	movs	r2, r1
    1c62:	401a      	ands	r2, r3
    1c64:	4219      	tst	r1, r3
    1c66:	d000      	beq.n	0x1c6a
    1c68:	e08f      	b.n	0x1d8a
    1c6a:	7bab      	ldrb	r3, [r5, #14]
    1c6c:	3b01      	subs	r3, #1
    1c6e:	2b0f      	cmp	r3, #15
    1c70:	d900      	bls.n	0x1c74
    1c72:	e08a      	b.n	0x1d8a
    1c74:	4c4b      	ldr	r4, [pc, #300]	; (0x1da4)
    1c76:	4b4c      	ldr	r3, [pc, #304]	; (0x1da8)
    1c78:	6023      	str	r3, [r4, #0]
    1c7a:	686b      	ldr	r3, [r5, #4]
    1c7c:	6063      	str	r3, [r4, #4]
    1c7e:	68ab      	ldr	r3, [r5, #8]
    1c80:	60a3      	str	r3, [r4, #8]
    1c82:	7beb      	ldrb	r3, [r5, #15]
    1c84:	2b03      	cmp	r3, #3
    1c86:	d002      	beq.n	0x1c8e
    1c88:	73e2      	strb	r2, [r4, #15]
    1c8a:	7662      	strb	r2, [r4, #25]
    1c8c:	76a2      	strb	r2, [r4, #26]
    1c8e:	2700      	movs	r7, #0
    1c90:	7327      	strb	r7, [r4, #12]
    1c92:	2b23      	cmp	r3, #35	; 0x23
    1c94:	d047      	beq.n	0x1d26
    1c96:	d818      	bhi.n	0x1cca
    1c98:	2b1a      	cmp	r3, #26
    1c9a:	d03b      	beq.n	0x1d14
    1c9c:	d80d      	bhi.n	0x1cba
    1c9e:	2b03      	cmp	r3, #3
    1ca0:	d051      	beq.n	0x1d46
    1ca2:	2b12      	cmp	r3, #18
    1ca4:	d025      	beq.n	0x1cf2
    1ca6:	42bb      	cmp	r3, r7
    1ca8:	d05a      	beq.n	0x1d60
    1caa:	2301      	movs	r3, #1
    1cac:	7323      	strb	r3, [r4, #12]
    1cae:	3304      	adds	r3, #4
    1cb0:	73e3      	strb	r3, [r4, #15]
    1cb2:	331b      	adds	r3, #27
    1cb4:	7663      	strb	r3, [r4, #25]
    1cb6:	2300      	movs	r3, #0
    1cb8:	e05c      	b.n	0x1d74
    1cba:	2b1b      	cmp	r3, #27
    1cbc:	d05c      	beq.n	0x1d78
    1cbe:	2b1e      	cmp	r3, #30
    1cc0:	d1f3      	bne.n	0x1caa
    1cc2:	0028      	movs	r0, r5
    1cc4:	f7ff fc9c 	bl	0x1600
    1cc8:	e00a      	b.n	0x1ce0
    1cca:	2b2a      	cmp	r3, #42	; 0x2a
    1ccc:	d029      	beq.n	0x1d22
    1cce:	d80b      	bhi.n	0x1ce8
    1cd0:	2b25      	cmp	r3, #37	; 0x25
    1cd2:	d031      	beq.n	0x1d38
    1cd4:	2101      	movs	r1, #1
    1cd6:	2b28      	cmp	r3, #40	; 0x28
    1cd8:	d1e7      	bne.n	0x1caa
    1cda:	0028      	movs	r0, r5
    1cdc:	f7ff fc0c 	bl	0x14f8
    1ce0:	0030      	movs	r0, r6
    1ce2:	f7fe fdf5 	bl	0x8d0
    1ce6:	bdf8      	pop	{r3, r4, r5, r6, r7, pc}
    1ce8:	2b2f      	cmp	r3, #47	; 0x2f
    1cea:	d0ea      	beq.n	0x1cc2
    1cec:	2b35      	cmp	r3, #53	; 0x35
    1cee:	d0e8      	beq.n	0x1cc2
    1cf0:	e7db      	b.n	0x1caa
    1cf2:	2124      	movs	r1, #36	; 0x24
    1cf4:	482d      	ldr	r0, [pc, #180]	; (0x1dac)
    1cf6:	f7ff fb81 	bl	0x13fc
    1cfa:	2119      	movs	r1, #25
    1cfc:	0004      	movs	r4, r0
    1cfe:	482c      	ldr	r0, [pc, #176]	; (0x1db0)
    1d00:	0022      	movs	r2, r4
    1d02:	1840      	adds	r0, r0, r1
    1d04:	f000 fc6b 	bl	0x25de
    1d08:	2380      	movs	r3, #128	; 0x80
    1d0a:	7063      	strb	r3, [r4, #1]
    1d0c:	0028      	movs	r0, r5
    1d0e:	f7ff fc55 	bl	0x15bc
    1d12:	e7e5      	b.n	0x1ce0
    1d14:	2104      	movs	r1, #4
    1d16:	4825      	ldr	r0, [pc, #148]	; (0x1dac)
    1d18:	f7ff fb70 	bl	0x13fc
    1d1c:	2303      	movs	r3, #3
    1d1e:	6003      	str	r3, [r0, #0]
    1d20:	e7f4      	b.n	0x1d0c
    1d22:	2102      	movs	r1, #2
    1d24:	e7d9      	b.n	0x1cda
    1d26:	210c      	movs	r1, #12
    1d28:	4820      	ldr	r0, [pc, #128]	; (0x1dac)
    1d2a:	f7ff fb67 	bl	0x13fc
    1d2e:	220c      	movs	r2, #12
    1d30:	4920      	ldr	r1, [pc, #128]	; (0x1db4)
    1d32:	f000 fc73 	bl	0x261c
    1d36:	e7e9      	b.n	0x1d0c
    1d38:	2108      	movs	r1, #8
    1d3a:	481c      	ldr	r0, [pc, #112]	; (0x1dac)
    1d3c:	f7ff fb5e 	bl	0x13fc
    1d40:	2208      	movs	r2, #8
    1d42:	491d      	ldr	r1, [pc, #116]	; (0x1db8)
    1d44:	e7f5      	b.n	0x1d32
    1d46:	2112      	movs	r1, #18
    1d48:	4818      	ldr	r0, [pc, #96]	; (0x1dac)
    1d4a:	f7ff fb57 	bl	0x13fc
    1d4e:	0021      	movs	r1, r4
    1d50:	2212      	movs	r2, #18
    1d52:	310d      	adds	r1, #13
    1d54:	f000 fc62 	bl	0x261c
    1d58:	73e7      	strb	r7, [r4, #15]
    1d5a:	7667      	strb	r7, [r4, #25]
    1d5c:	76a7      	strb	r7, [r4, #26]
    1d5e:	e7d5      	b.n	0x1d0c
    1d60:	1de2      	adds	r2, r4, #7
    1d62:	7fd2      	ldrb	r2, [r2, #31]
    1d64:	2a00      	cmp	r2, #0
    1d66:	d0ac      	beq.n	0x1cc2
    1d68:	2201      	movs	r2, #1
    1d6a:	7322      	strb	r2, [r4, #12]
    1d6c:	1892      	adds	r2, r2, r2
    1d6e:	73e2      	strb	r2, [r4, #15]
    1d70:	3238      	adds	r2, #56	; 0x38
    1d72:	7662      	strb	r2, [r4, #25]
    1d74:	76a3      	strb	r3, [r4, #26]
    1d76:	e7a4      	b.n	0x1cc2
    1d78:	2203      	movs	r2, #3
    1d7a:	7ceb      	ldrb	r3, [r5, #19]
    1d7c:	4013      	ands	r3, r2
    1d7e:	2b02      	cmp	r3, #2
    1d80:	d19f      	bne.n	0x1cc2
    1d82:	3407      	adds	r4, #7
    1d84:	3b01      	subs	r3, #1
    1d86:	77e3      	strb	r3, [r4, #31]
    1d88:	e79b      	b.n	0x1cc2
    1d8a:	4c08      	ldr	r4, [pc, #32]	; (0x1dac)
    1d8c:	2103      	movs	r1, #3
    1d8e:	0020      	movs	r0, r4
    1d90:	f7fe fd3c 	bl	0x80c
    1d94:	0020      	movs	r0, r4
    1d96:	2103      	movs	r1, #3
    1d98:	302c      	adds	r0, #44	; 0x2c
    1d9a:	f7fe fd37 	bl	0x80c
    1d9e:	e79f      	b.n	0x1ce0
    1da0:	5355      	strh	r5, [r2, r5]
    1da2:	4342      	muls	r2, r0
    1da4:	0a7c      	lsrs	r4, r7, #9
    1da6:	5010      	str	r0, [r2, r0]
    1da8:	5355      	strh	r5, [r2, r5]
    1daa:	5342      	strh	r2, [r0, r5]
    1dac:	0dc0      	lsrs	r0, r0, #23
    1dae:	5010      	str	r0, [r2, r0]
    1db0:	3f3c      	subs	r7, #60	; 0x3c
    1db2:	0000      	movs	r0, r0
    1db4:	3e03      	subs	r6, #3
    1db6:	0000      	movs	r0, r0
    1db8:	3dfb      	subs	r5, #251	; 0xfb
    1dba:	0000      	movs	r0, r0
    1dbc:	b510      	push	{r4, lr}
    1dbe:	4b09      	ldr	r3, [pc, #36]	; (0x1de4)
    1dc0:	4c09      	ldr	r4, [pc, #36]	; (0x1de8)
    1dc2:	6a5a      	ldr	r2, [r3, #36]	; 0x24
    1dc4:	3229      	adds	r2, #41	; 0x29
    1dc6:	7812      	ldrb	r2, [r2, #0]
    1dc8:	2a00      	cmp	r2, #0
    1dca:	d100      	bne.n	0x1dce
    1dcc:	4c07      	ldr	r4, [pc, #28]	; (0x1dec)
    1dce:	4a08      	ldr	r2, [pc, #32]	; (0x1df0)
    1dd0:	6811      	ldr	r1, [r2, #0]
    1dd2:	1c48      	adds	r0, r1, #1
    1dd4:	6ad9      	ldr	r1, [r3, #44]	; 0x2c
    1dd6:	6010      	str	r0, [r2, #0]
    1dd8:	1c4a      	adds	r2, r1, #1
    1dda:	62da      	str	r2, [r3, #44]	; 0x2c
    1ddc:	4a05      	ldr	r2, [pc, #20]	; (0x1df4)
    1dde:	47a0      	blx	r4
    1de0:	bd10      	pop	{r4, pc}
    1de2:	46c0      	nop			; (mov r8, r8)
    1de4:	0a4c      	lsrs	r4, r1, #9
    1de6:	5010      	str	r0, [r2, r0]
    1de8:	1029      	asrs	r1, r5, #32
    1dea:	0000      	movs	r0, r0
    1dec:	11b1      	asrs	r1, r6, #6
    1dee:	0000      	movs	r0, r0
    1df0:	0a20      	lsrs	r0, r4, #8
    1df2:	5010      	str	r0, [r2, r0]
    1df4:	0b1c      	lsrs	r4, r3, #12
    1df6:	5010      	str	r0, [r2, r0]
    1df8:	b5f7      	push	{r0, r1, r2, r4, r5, r6, r7, lr}
    1dfa:	4baa      	ldr	r3, [pc, #680]	; (0x20a4)
    1dfc:	681b      	ldr	r3, [r3, #0]
    1dfe:	9301      	str	r3, [sp, #4]
    1e00:	03db      	lsls	r3, r3, #15
    1e02:	d400      	bmi.n	0x1e06
    1e04:	e088      	b.n	0x1f18
    1e06:	f3bf 8f5b 	dmb	ish
    1e0a:	4fa7      	ldr	r7, [pc, #668]	; (0x20a8)
    1e0c:	2100      	movs	r1, #0
    1e0e:	0038      	movs	r0, r7
    1e10:	2401      	movs	r4, #1
    1e12:	f7fe fddf 	bl	0x9d4
    1e16:	4ea5      	ldr	r6, [pc, #660]	; (0x20ac)
    1e18:	2100      	movs	r1, #0
    1e1a:	0030      	movs	r0, r6
    1e1c:	f7fe fdda 	bl	0x9d4
    1e20:	211f      	movs	r1, #31
    1e22:	1cb3      	adds	r3, r6, #2
    1e24:	77dc      	strb	r4, [r3, #31]
    1e26:	4aa2      	ldr	r2, [pc, #648]	; (0x20b0)
    1e28:	1cbb      	adds	r3, r7, #2
    1e2a:	77dc      	strb	r4, [r3, #31]
    1e2c:	7813      	ldrb	r3, [r2, #0]
    1e2e:	0015      	movs	r5, r2
    1e30:	4019      	ands	r1, r3
    1e32:	42a1      	cmp	r1, r4
    1e34:	d100      	bne.n	0x1e38
    1e36:	e0a2      	b.n	0x1f7e
    1e38:	2902      	cmp	r1, #2
    1e3a:	d100      	bne.n	0x1e3e
    1e3c:	e0ca      	b.n	0x1fd4
    1e3e:	2900      	cmp	r1, #0
    1e40:	d157      	bne.n	0x1ef2
    1e42:	3160      	adds	r1, #96	; 0x60
    1e44:	420b      	tst	r3, r1
    1e46:	d154      	bne.n	0x1ef2
    1e48:	b25b      	sxtb	r3, r3
    1e4a:	2b00      	cmp	r3, #0
    1e4c:	da4c      	bge.n	0x1ee8
    1e4e:	0038      	movs	r0, r7
    1e50:	f7fe fbbc 	bl	0x5cc
    1e54:	786b      	ldrb	r3, [r5, #1]
    1e56:	0007      	movs	r7, r0
    1e58:	6806      	ldr	r6, [r0, #0]
    1e5a:	2b06      	cmp	r3, #6
    1e5c:	d00d      	beq.n	0x1e7a
    1e5e:	2b08      	cmp	r3, #8
    1e60:	d03e      	beq.n	0x1ee0
    1e62:	2b00      	cmp	r3, #0
    1e64:	d145      	bne.n	0x1ef2
    1e66:	8033      	strh	r3, [r6, #0]
    1e68:	1924      	adds	r4, r4, r4
    1e6a:	88eb      	ldrh	r3, [r5, #6]
    1e6c:	42a3      	cmp	r3, r4
    1e6e:	dd00      	ble.n	0x1e72
    1e70:	0023      	movs	r3, r4
    1e72:	713b      	strb	r3, [r7, #4]
    1e74:	f7fe fc96 	bl	0x7a4
    1e78:	e04a      	b.n	0x1f10
    1e7a:	8868      	ldrh	r0, [r5, #2]
    1e7c:	0a03      	lsrs	r3, r0, #8
    1e7e:	2b02      	cmp	r3, #2
    1e80:	d00d      	beq.n	0x1e9e
    1e82:	2b03      	cmp	r3, #3
    1e84:	d016      	beq.n	0x1eb4
    1e86:	2b01      	cmp	r3, #1
    1e88:	d133      	bne.n	0x1ef2
    1e8a:	4b8a      	ldr	r3, [pc, #552]	; (0x20b4)
    1e8c:	2412      	movs	r4, #18
    1e8e:	6819      	ldr	r1, [r3, #0]
    1e90:	2900      	cmp	r1, #0
    1e92:	d0ea      	beq.n	0x1e6a
    1e94:	0022      	movs	r2, r4
    1e96:	0030      	movs	r0, r6
    1e98:	f000 fbc0 	bl	0x261c
    1e9c:	e7e5      	b.n	0x1e6a
    1e9e:	b2c0      	uxtb	r0, r0
    1ea0:	2800      	cmp	r0, #0
    1ea2:	d126      	bne.n	0x1ef2
    1ea4:	4b83      	ldr	r3, [pc, #524]	; (0x20b4)
    1ea6:	68d9      	ldr	r1, [r3, #12]
    1ea8:	78cc      	ldrb	r4, [r1, #3]
    1eaa:	788b      	ldrb	r3, [r1, #2]
    1eac:	0224      	lsls	r4, r4, #8
    1eae:	431c      	orrs	r4, r3
    1eb0:	d0db      	beq.n	0x1e6a
    1eb2:	e7ef      	b.n	0x1e94
    1eb4:	b2c0      	uxtb	r0, r0
    1eb6:	2800      	cmp	r0, #0
    1eb8:	d00f      	beq.n	0x1eda
    1eba:	4b7e      	ldr	r3, [pc, #504]	; (0x20b4)
    1ebc:	2402      	movs	r4, #2
    1ebe:	689b      	ldr	r3, [r3, #8]
    1ec0:	4798      	blx	r3
    1ec2:	3001      	adds	r0, #1
    1ec4:	1e43      	subs	r3, r0, #1
    1ec6:	781b      	ldrb	r3, [r3, #0]
    1ec8:	2b00      	cmp	r3, #0
    1eca:	d103      	bne.n	0x1ed4
    1ecc:	3303      	adds	r3, #3
    1ece:	7034      	strb	r4, [r6, #0]
    1ed0:	7073      	strb	r3, [r6, #1]
    1ed2:	e7ca      	b.n	0x1e6a
    1ed4:	5333      	strh	r3, [r6, r4]
    1ed6:	3402      	adds	r4, #2
    1ed8:	e7f3      	b.n	0x1ec2
    1eda:	2404      	movs	r4, #4
    1edc:	4976      	ldr	r1, [pc, #472]	; (0x20b8)
    1ede:	e7d9      	b.n	0x1e94
    1ee0:	4b74      	ldr	r3, [pc, #464]	; (0x20b4)
    1ee2:	7d5b      	ldrb	r3, [r3, #21]
    1ee4:	7033      	strb	r3, [r6, #0]
    1ee6:	e7c0      	b.n	0x1e6a
    1ee8:	7853      	ldrb	r3, [r2, #1]
    1eea:	2b05      	cmp	r3, #5
    1eec:	d004      	beq.n	0x1ef8
    1eee:	2b09      	cmp	r3, #9
    1ef0:	d038      	beq.n	0x1f64
    1ef2:	f7fe fd59 	bl	0x9a8
    1ef6:	e00b      	b.n	0x1f10
    1ef8:	2302      	movs	r3, #2
    1efa:	56d3      	ldrsb	r3, [r2, r3]
    1efc:	8851      	ldrh	r1, [r2, #2]
    1efe:	2b00      	cmp	r3, #0
    1f00:	ddf7      	ble.n	0x1ef2
    1f02:	4b6c      	ldr	r3, [pc, #432]	; (0x20b4)
    1f04:	0038      	movs	r0, r7
    1f06:	7599      	strb	r1, [r3, #22]
    1f08:	4a6c      	ldr	r2, [pc, #432]	; (0x20bc)
    1f0a:	496d      	ldr	r1, [pc, #436]	; (0x20c0)
    1f0c:	f7fe fc1c 	bl	0x748
    1f10:	2280      	movs	r2, #128	; 0x80
    1f12:	4b6c      	ldr	r3, [pc, #432]	; (0x20c4)
    1f14:	0292      	lsls	r2, r2, #10
    1f16:	651a      	str	r2, [r3, #80]	; 0x50
    1f18:	9b01      	ldr	r3, [sp, #4]
    1f1a:	06db      	lsls	r3, r3, #27
    1f1c:	d50a      	bpl.n	0x1f34
    1f1e:	2600      	movs	r6, #0
    1f20:	2401      	movs	r4, #1
    1f22:	4f69      	ldr	r7, [pc, #420]	; (0x20c8)
    1f24:	6dbd      	ldr	r5, [r7, #88]	; 0x58
    1f26:	2d00      	cmp	r5, #0
    1f28:	d004      	beq.n	0x1f34
    1f2a:	2e0a      	cmp	r6, #10
    1f2c:	d000      	beq.n	0x1f30
    1f2e:	e082      	b.n	0x2036
    1f30:	4b64      	ldr	r3, [pc, #400]	; (0x20c4)
    1f32:	659d      	str	r5, [r3, #88]	; 0x58
    1f34:	9b01      	ldr	r3, [sp, #4]
    1f36:	04db      	lsls	r3, r3, #19
    1f38:	d505      	bpl.n	0x1f46
    1f3a:	f7fe ffc7 	bl	0xecc
    1f3e:	2280      	movs	r2, #128	; 0x80
    1f40:	4b60      	ldr	r3, [pc, #384]	; (0x20c4)
    1f42:	0312      	lsls	r2, r2, #12
    1f44:	651a      	str	r2, [r3, #80]	; 0x50
    1f46:	23f8      	movs	r3, #248	; 0xf8
    1f48:	9a01      	ldr	r2, [sp, #4]
    1f4a:	009b      	lsls	r3, r3, #2
    1f4c:	421a      	tst	r2, r3
    1f4e:	d008      	beq.n	0x1f62
    1f50:	4b5d      	ldr	r3, [pc, #372]	; (0x20c8)
    1f52:	6d1b      	ldr	r3, [r3, #80]	; 0x50
    1f54:	2b00      	cmp	r3, #0
    1f56:	db00      	blt.n	0x1f5a
    1f58:	e07e      	b.n	0x2058
    1f5a:	2280      	movs	r2, #128	; 0x80
    1f5c:	4b59      	ldr	r3, [pc, #356]	; (0x20c4)
    1f5e:	0612      	lsls	r2, r2, #24
    1f60:	651a      	str	r2, [r3, #80]	; 0x50
    1f62:	bdf7      	pop	{r0, r1, r2, r4, r5, r6, r7, pc}
    1f64:	7890      	ldrb	r0, [r2, #2]
    1f66:	2800      	cmp	r0, #0
    1f68:	d004      	beq.n	0x1f74
    1f6a:	4b52      	ldr	r3, [pc, #328]	; (0x20b4)
    1f6c:	68db      	ldr	r3, [r3, #12]
    1f6e:	795b      	ldrb	r3, [r3, #5]
    1f70:	4283      	cmp	r3, r0
    1f72:	d1be      	bne.n	0x1ef2
    1f74:	f7fe ff8e 	bl	0xe94
    1f78:	f7fe fbfc 	bl	0x774
    1f7c:	e7c8      	b.n	0x1f10
    1f7e:	8893      	ldrh	r3, [r2, #4]
    1f80:	4a4c      	ldr	r2, [pc, #304]	; (0x20b4)
    1f82:	7d51      	ldrb	r1, [r2, #21]
    1f84:	2900      	cmp	r1, #0
    1f86:	d0b4      	beq.n	0x1ef2
    1f88:	21fe      	movs	r1, #254	; 0xfe
    1f8a:	420b      	tst	r3, r1
    1f8c:	d1b1      	bne.n	0x1ef2
    1f8e:	6912      	ldr	r2, [r2, #16]
    1f90:	b2db      	uxtb	r3, r3
    1f92:	009b      	lsls	r3, r3, #2
    1f94:	5898      	ldr	r0, [r3, r2]
    1f96:	2800      	cmp	r0, #0
    1f98:	d0ab      	beq.n	0x1ef2
    1f9a:	6843      	ldr	r3, [r0, #4]
    1f9c:	2b00      	cmp	r3, #0
    1f9e:	d114      	bne.n	0x1fca
    1fa0:	2260      	movs	r2, #96	; 0x60
    1fa2:	782b      	ldrb	r3, [r5, #0]
    1fa4:	4213      	tst	r3, r2
    1fa6:	d1a4      	bne.n	0x1ef2
    1fa8:	88aa      	ldrh	r2, [r5, #4]
    1faa:	0a12      	lsrs	r2, r2, #8
    1fac:	d1a1      	bne.n	0x1ef2
    1fae:	b25b      	sxtb	r3, r3
    1fb0:	2b00      	cmp	r3, #0
    1fb2:	da9e      	bge.n	0x1ef2
    1fb4:	786c      	ldrb	r4, [r5, #1]
    1fb6:	2c00      	cmp	r4, #0
    1fb8:	d19b      	bne.n	0x1ef2
    1fba:	0038      	movs	r0, r7
    1fbc:	f7fe fb06 	bl	0x5cc
    1fc0:	6803      	ldr	r3, [r0, #0]
    1fc2:	601c      	str	r4, [r3, #0]
    1fc4:	2302      	movs	r3, #2
    1fc6:	7103      	strb	r3, [r0, #4]
    1fc8:	e754      	b.n	0x1e74
    1fca:	0029      	movs	r1, r5
    1fcc:	4798      	blx	r3
    1fce:	2800      	cmp	r0, #0
    1fd0:	d19e      	bne.n	0x1f10
    1fd2:	e7e5      	b.n	0x1fa0
    1fd4:	8892      	ldrh	r2, [r2, #4]
    1fd6:	2a00      	cmp	r2, #0
    1fd8:	d041      	beq.n	0x205e
    1fda:	2a80      	cmp	r2, #128	; 0x80
    1fdc:	d060      	beq.n	0x20a0
    1fde:	4935      	ldr	r1, [pc, #212]	; (0x20b4)
    1fe0:	7d49      	ldrb	r1, [r1, #21]
    1fe2:	2900      	cmp	r1, #0
    1fe4:	d100      	bne.n	0x1fe8
    1fe6:	e784      	b.n	0x1ef2
    1fe8:	4938      	ldr	r1, [pc, #224]	; (0x20cc)
    1fea:	00a0      	lsls	r0, r4, #2
    1fec:	5840      	ldr	r0, [r0, r1]
    1fee:	6806      	ldr	r6, [r0, #0]
    1ff0:	78b6      	ldrb	r6, [r6, #2]
    1ff2:	42b2      	cmp	r2, r6
    1ff4:	d034      	beq.n	0x2060
    1ff6:	3401      	adds	r4, #1
    1ff8:	2c05      	cmp	r4, #5
    1ffa:	d1f6      	bne.n	0x1fea
    1ffc:	e779      	b.n	0x1ef2
    1ffe:	7869      	ldrb	r1, [r5, #1]
    2000:	2901      	cmp	r1, #1
    2002:	d00a      	beq.n	0x201a
    2004:	2903      	cmp	r1, #3
    2006:	d000      	beq.n	0x200a
    2008:	e773      	b.n	0x1ef2
    200a:	886b      	ldrh	r3, [r5, #2]
    200c:	2b00      	cmp	r3, #0
    200e:	d000      	beq.n	0x2012
    2010:	e76f      	b.n	0x1ef2
    2012:	2102      	movs	r1, #2
    2014:	f7fe fbfa 	bl	0x80c
    2018:	e7ae      	b.n	0x1f78
    201a:	886b      	ldrh	r3, [r5, #2]
    201c:	2b00      	cmp	r3, #0
    201e:	d000      	beq.n	0x2022
    2020:	e767      	b.n	0x1ef2
    2022:	1dc2      	adds	r2, r0, #7
    2024:	7fd2      	ldrb	r2, [r2, #31]
    2026:	2a02      	cmp	r2, #2
    2028:	d802      	bhi.n	0x2030
    202a:	f7fe fcd3 	bl	0x9d4
    202e:	e7a3      	b.n	0x1f78
    2030:	3002      	adds	r0, #2
    2032:	77c3      	strb	r3, [r0, #31]
    2034:	e7a0      	b.n	0x1f78
    2036:	422c      	tst	r4, r5
    2038:	d00b      	beq.n	0x2052
    203a:	2101      	movs	r1, #1
    203c:	6dfa      	ldr	r2, [r7, #92]	; 0x5c
    203e:	4b21      	ldr	r3, [pc, #132]	; (0x20c4)
    2040:	4022      	ands	r2, r4
    2042:	659c      	str	r4, [r3, #88]	; 0x58
    2044:	0870      	lsrs	r0, r6, #1
    2046:	1e53      	subs	r3, r2, #1
    2048:	419a      	sbcs	r2, r3
    204a:	43b1      	bics	r1, r6
    204c:	f7fe fc06 	bl	0x85c
    2050:	43a5      	bics	r5, r4
    2052:	0064      	lsls	r4, r4, #1
    2054:	3601      	adds	r6, #1
    2056:	e766      	b.n	0x1f26
    2058:	f7fe ff38 	bl	0xecc
    205c:	e781      	b.n	0x1f62
    205e:	0030      	movs	r0, r6
    2060:	2260      	movs	r2, #96	; 0x60
    2062:	4213      	tst	r3, r2
    2064:	d000      	beq.n	0x2068
    2066:	e744      	b.n	0x1ef2
    2068:	b25b      	sxtb	r3, r3
    206a:	2b00      	cmp	r3, #0
    206c:	dac7      	bge.n	0x1ffe
    206e:	786b      	ldrb	r3, [r5, #1]
    2070:	2b00      	cmp	r3, #0
    2072:	d000      	beq.n	0x2076
    2074:	e73d      	b.n	0x1ef2
    2076:	886b      	ldrh	r3, [r5, #2]
    2078:	2b00      	cmp	r3, #0
    207a:	d000      	beq.n	0x207e
    207c:	e739      	b.n	0x1ef2
    207e:	88ec      	ldrh	r4, [r5, #6]
    2080:	2c02      	cmp	r4, #2
    2082:	d000      	beq.n	0x2086
    2084:	e735      	b.n	0x1ef2
    2086:	2501      	movs	r5, #1
    2088:	3007      	adds	r0, #7
    208a:	7fc3      	ldrb	r3, [r0, #31]
    208c:	0038      	movs	r0, r7
    208e:	429d      	cmp	r5, r3
    2090:	41ad      	sbcs	r5, r5
    2092:	f7fe fa9b 	bl	0x5cc
    2096:	6803      	ldr	r3, [r0, #0]
    2098:	426d      	negs	r5, r5
    209a:	601d      	str	r5, [r3, #0]
    209c:	7104      	strb	r4, [r0, #4]
    209e:	e6e9      	b.n	0x1e74
    20a0:	0038      	movs	r0, r7
    20a2:	e7dd      	b.n	0x2060
    20a4:	0098      	lsls	r0, r3, #2
    20a6:	5011      	str	r1, [r2, r0]
    20a8:	0f68      	lsrs	r0, r5, #29
    20aa:	5010      	str	r0, [r2, r0]
    20ac:	0f94      	lsrs	r4, r2, #30
    20ae:	5010      	str	r0, [r2, r0]
    20b0:	0000      	movs	r0, r0
    20b2:	5010      	str	r0, [r2, r0]
    20b4:	09ec      	lsrs	r4, r5, #7
    20b6:	5010      	str	r0, [r2, r0]
    20b8:	3f2e      	subs	r7, #46	; 0x2e
    20ba:	0000      	movs	r0, r0
    20bc:	048d      	lsls	r5, r1, #18
    20be:	0000      	movs	r0, r0
    20c0:	09c4      	lsrs	r4, r0, #7
    20c2:	5010      	str	r0, [r2, r0]
    20c4:	3000      	adds	r0, #0
    20c6:	5011      	str	r1, [r2, r0]
    20c8:	0000      	movs	r0, r0
    20ca:	5011      	str	r1, [r2, r0]
    20cc:	0a08      	lsrs	r0, r1, #8
    20ce:	5010      	str	r0, [r2, r0]
    20d0:	b510      	push	{r4, lr}
    20d2:	f7fe fbfd 	bl	0x8d0
    20d6:	bd10      	pop	{r4, pc}
    20d8:	b5f8      	push	{r3, r4, r5, r6, r7, lr}
    20da:	4a1a      	ldr	r2, [pc, #104]	; (0x2144)
    20dc:	4b1a      	ldr	r3, [pc, #104]	; (0x2148)
    20de:	601a      	str	r2, [r3, #0]
    20e0:	f3ef 8510 	mrs	r5, PRIMASK
    20e4:	b672      	cpsid	i
    20e6:	f3bf 8f5b 	dmb	ish
    20ea:	4c18      	ldr	r4, [pc, #96]	; (0x214c)
    20ec:	0027      	movs	r7, r4
    20ee:	3728      	adds	r7, #40	; 0x28
    20f0:	783b      	ldrb	r3, [r7, #0]
    20f2:	b2de      	uxtb	r6, r3
    20f4:	2b00      	cmp	r3, #0
    20f6:	d113      	bne.n	0x2120
    20f8:	f385 8810 	msr	PRIMASK, r5
    20fc:	f3ef 8510 	mrs	r5, PRIMASK
    2100:	b672      	cpsid	i
    2102:	f3bf 8f5b 	dmb	ish
    2106:	4c12      	ldr	r4, [pc, #72]	; (0x2150)
    2108:	0027      	movs	r7, r4
    210a:	3728      	adds	r7, #40	; 0x28
    210c:	783b      	ldrb	r3, [r7, #0]
    210e:	2b00      	cmp	r3, #0
    2110:	d013      	beq.n	0x213a
    2112:	2228      	movs	r2, #40	; 0x28
    2114:	0021      	movs	r1, r4
    2116:	480f      	ldr	r0, [pc, #60]	; (0x2154)
    2118:	f000 fa80 	bl	0x261c
    211c:	703e      	strb	r6, [r7, #0]
    211e:	e006      	b.n	0x212e
    2120:	2228      	movs	r2, #40	; 0x28
    2122:	0021      	movs	r1, r4
    2124:	480b      	ldr	r0, [pc, #44]	; (0x2154)
    2126:	f000 fa79 	bl	0x261c
    212a:	2300      	movs	r3, #0
    212c:	703b      	strb	r3, [r7, #0]
    212e:	f385 8810 	msr	PRIMASK, r5
    2132:	0020      	movs	r0, r4
    2134:	f7fe fd52 	bl	0xbdc
    2138:	e7d2      	b.n	0x20e0
    213a:	f385 8810 	msr	PRIMASK, r5
    213e:	bf20      	wfe
    2140:	e7ce      	b.n	0x20e0
    2142:	46c0      	nop			; (mov r8, r8)
    2144:	3ec4      	subs	r6, #196	; 0xc4
    2146:	0000      	movs	r0, r0
    2148:	0dbc      	lsrs	r4, r7, #22
    214a:	5010      	str	r0, [r2, r0]
    214c:	0fc0      	lsrs	r0, r0, #31
    214e:	5010      	str	r0, [r2, r0]
    2150:	0e84      	lsrs	r4, r0, #26
    2152:	5010      	str	r0, [r2, r0]
    2154:	0d8c      	lsrs	r4, r1, #22
    2156:	5010      	str	r0, [r2, r0]
    2158:	b5f7      	push	{r0, r1, r2, r4, r5, r6, r7, lr}
    215a:	9001      	str	r0, [sp, #4]
    215c:	f7fe fa36 	bl	0x5cc
    2160:	7903      	ldrb	r3, [r0, #4]
    2162:	2b20      	cmp	r3, #32
    2164:	d000      	beq.n	0x2168
    2166:	e09e      	b.n	0x22a6
    2168:	6806      	ldr	r6, [r0, #0]
    216a:	4b53      	ldr	r3, [pc, #332]	; (0x22b8)
    216c:	6832      	ldr	r2, [r6, #0]
    216e:	429a      	cmp	r2, r3
    2170:	d000      	beq.n	0x2174
    2172:	e098      	b.n	0x22a6
    2174:	4c51      	ldr	r4, [pc, #324]	; (0x22bc)
    2176:	2128      	movs	r1, #40	; 0x28
    2178:	0020      	movs	r0, r4
    217a:	302c      	adds	r0, #44	; 0x2c
    217c:	f7fe fede 	bl	0xf3c
    2180:	4a4f      	ldr	r2, [pc, #316]	; (0x22c0)
    2182:	6813      	ldr	r3, [r2, #0]
    2184:	3b01      	subs	r3, #1
    2186:	6013      	str	r3, [r2, #0]
    2188:	6872      	ldr	r2, [r6, #4]
    218a:	62e3      	str	r3, [r4, #44]	; 0x2c
    218c:	64e2      	str	r2, [r4, #76]	; 0x4c
    218e:	7a33      	ldrb	r3, [r6, #8]
    2190:	9300      	str	r3, [sp, #0]
    2192:	4b4c      	ldr	r3, [pc, #304]	; (0x22c4)
    2194:	9900      	ldr	r1, [sp, #0]
    2196:	601a      	str	r2, [r3, #0]
    2198:	2200      	movs	r2, #0
    219a:	725a      	strb	r2, [r3, #9]
    219c:	3201      	adds	r2, #1
    219e:	605a      	str	r2, [r3, #4]
    21a0:	6932      	ldr	r2, [r6, #16]
    21a2:	7219      	strb	r1, [r3, #8]
    21a4:	63e2      	str	r2, [r4, #60]	; 0x3c
    21a6:	63a2      	str	r2, [r4, #56]	; 0x38
    21a8:	4694      	mov	ip, r2
    21aa:	0022      	movs	r2, r4
    21ac:	6971      	ldr	r1, [r6, #20]
    21ae:	3251      	adds	r2, #81	; 0x51
    21b0:	6421      	str	r1, [r4, #64]	; 0x40
    21b2:	7c30      	ldrb	r0, [r6, #16]
    21b4:	7010      	strb	r0, [r2, #0]
    21b6:	227f      	movs	r2, #127	; 0x7f
    21b8:	9800      	ldr	r0, [sp, #0]
    21ba:	4002      	ands	r2, r0
    21bc:	1e50      	subs	r0, r2, #1
    21be:	2808      	cmp	r0, #8
    21c0:	d900      	bls.n	0x21c4
    21c2:	e070      	b.n	0x22a6
    21c4:	2003      	movs	r0, #3
    21c6:	4342      	muls	r2, r0
    21c8:	483f      	ldr	r0, [pc, #252]	; (0x22c8)
    21ca:	7a77      	ldrb	r7, [r6, #9]
    21cc:	5c85      	ldrb	r5, [r0, r2]
    21ce:	42af      	cmp	r7, r5
    21d0:	d161      	bne.n	0x2296
    21d2:	2500      	movs	r5, #0
    21d4:	1880      	adds	r0, r0, r2
    21d6:	605d      	str	r5, [r3, #4]
    21d8:	7843      	ldrb	r3, [r0, #1]
    21da:	7840      	ldrb	r0, [r0, #1]
    21dc:	000d      	movs	r5, r1
    21de:	b240      	sxtb	r0, r0
    21e0:	2800      	cmp	r0, #0
    21e2:	db00      	blt.n	0x21e6
    21e4:	001d      	movs	r5, r3
    21e6:	68f3      	ldr	r3, [r6, #12]
    21e8:	42ab      	cmp	r3, r5
    21ea:	d156      	bne.n	0x229a
    21ec:	4b36      	ldr	r3, [pc, #216]	; (0x22c8)
    21ee:	189a      	adds	r2, r3, r2
    21f0:	9b00      	ldr	r3, [sp, #0]
    21f2:	7897      	ldrb	r7, [r2, #2]
    21f4:	2b02      	cmp	r3, #2
    21f6:	d109      	bne.n	0x220c
    21f8:	4660      	mov	r0, ip
    21fa:	69b2      	ldr	r2, [r6, #24]
    21fc:	f7fe fc12 	bl	0xa24
    2200:	f7fe fc98 	bl	0xb34
    2204:	9801      	ldr	r0, [sp, #4]
    2206:	f7fe fb63 	bl	0x8d0
    220a:	bdf7      	pop	{r0, r1, r2, r4, r5, r6, r7, pc}
    220c:	2f00      	cmp	r7, #0
    220e:	d047      	beq.n	0x22a0
    2210:	0023      	movs	r3, r4
    2212:	3350      	adds	r3, #80	; 0x50
    2214:	701f      	strb	r7, [r3, #0]
    2216:	0023      	movs	r3, r4
    2218:	2202      	movs	r2, #2
    221a:	2601      	movs	r6, #1
    221c:	3352      	adds	r3, #82	; 0x52
    221e:	701a      	strb	r2, [r3, #0]
    2220:	4b28      	ldr	r3, [pc, #160]	; (0x22c4)
    2222:	725e      	strb	r6, [r3, #9]
    2224:	2d00      	cmp	r5, #0
    2226:	d028      	beq.n	0x227a
    2228:	4b28      	ldr	r3, [pc, #160]	; (0x22cc)
    222a:	4a29      	ldr	r2, [pc, #164]	; (0x22d0)
    222c:	6463      	str	r3, [r4, #68]	; 0x44
    222e:	6223      	str	r3, [r4, #32]
    2230:	2380      	movs	r3, #128	; 0x80
    2232:	005b      	lsls	r3, r3, #1
    2234:	61e3      	str	r3, [r4, #28]
    2236:	2300      	movs	r3, #0
    2238:	62a2      	str	r2, [r4, #40]	; 0x28
    223a:	6163      	str	r3, [r4, #20]
    223c:	4a25      	ldr	r2, [pc, #148]	; (0x22d4)
    223e:	61a5      	str	r5, [r4, #24]
    2240:	0020      	movs	r0, r4
    2242:	4925      	ldr	r1, [pc, #148]	; (0x22d8)
    2244:	f7fe f92c 	bl	0x4a0
    2248:	353f      	adds	r5, #63	; 0x3f
    224a:	68a3      	ldr	r3, [r4, #8]
    224c:	09ad      	lsrs	r5, r5, #6
    224e:	195b      	adds	r3, r3, r5
    2250:	60a3      	str	r3, [r4, #8]
    2252:	68e3      	ldr	r3, [r4, #12]
    2254:	003a      	movs	r2, r7
    2256:	195d      	adds	r5, r3, r5
    2258:	2308      	movs	r3, #8
    225a:	60e5      	str	r5, [r4, #12]
    225c:	401a      	ands	r2, r3
    225e:	421f      	tst	r7, r3
    2260:	d003      	beq.n	0x226a
    2262:	4b1e      	ldr	r3, [pc, #120]	; (0x22dc)
    2264:	6263      	str	r3, [r4, #36]	; 0x24
    2266:	60dc      	str	r4, [r3, #12]
    2268:	e7cc      	b.n	0x2204
    226a:	481d      	ldr	r0, [pc, #116]	; (0x22e0)
    226c:	74a6      	strb	r6, [r4, #18]
    226e:	6260      	str	r0, [r4, #36]	; 0x24
    2270:	6084      	str	r4, [r0, #8]
    2272:	60c2      	str	r2, [r0, #12]
    2274:	f7fe fa14 	bl	0x6a0
    2278:	e7c4      	b.n	0x2204
    227a:	481a      	ldr	r0, [pc, #104]	; (0x22e4)
    227c:	0021      	movs	r1, r4
    227e:	0005      	movs	r5, r0
    2280:	4b19      	ldr	r3, [pc, #100]	; (0x22e8)
    2282:	3528      	adds	r5, #40	; 0x28
    2284:	6363      	str	r3, [r4, #52]	; 0x34
    2286:	2228      	movs	r2, #40	; 0x28
    2288:	312c      	adds	r1, #44	; 0x2c
    228a:	782b      	ldrb	r3, [r5, #0]
    228c:	f000 f9c6 	bl	0x261c
    2290:	702e      	strb	r6, [r5, #0]
    2292:	bf40      	sev
    2294:	e7b6      	b.n	0x2204
    2296:	2202      	movs	r2, #2
    2298:	e004      	b.n	0x22a4
    229a:	9b00      	ldr	r3, [sp, #0]
    229c:	2b02      	cmp	r3, #2
    229e:	d0ab      	beq.n	0x21f8
    22a0:	2203      	movs	r2, #3
    22a2:	4b08      	ldr	r3, [pc, #32]	; (0x22c4)
    22a4:	605a      	str	r2, [r3, #4]
    22a6:	2102      	movs	r1, #2
    22a8:	480d      	ldr	r0, [pc, #52]	; (0x22e0)
    22aa:	f7fe faaf 	bl	0x80c
    22ae:	2102      	movs	r1, #2
    22b0:	480a      	ldr	r0, [pc, #40]	; (0x22dc)
    22b2:	f7fe faab 	bl	0x80c
    22b6:	e7a5      	b.n	0x2204
    22b8:	d10b      	bne.n	0x22d2
    22ba:	431f      	orrs	r7, r3
    22bc:	0ac8      	lsrs	r0, r1, #11
    22be:	5010      	str	r0, [r2, r0]
    22c0:	0eb0      	lsrs	r0, r6, #26
    22c2:	5010      	str	r0, [r2, r0]
    22c4:	0ab8      	lsrs	r0, r7, #10
    22c6:	5010      	str	r0, [r2, r0]
    22c8:	3ea4      	subs	r6, #164	; 0xa4
    22ca:	0000      	movs	r0, r0
    22cc:	08c4      	lsrs	r4, r0, #3
    22ce:	5010      	str	r0, [r2, r0]
    22d0:	3de8      	subs	r5, #232	; 0xe8
    22d2:	0000      	movs	r0, r0
    22d4:	0b35      	lsrs	r5, r6, #12
    22d6:	0000      	movs	r0, r0
    22d8:	3e0f      	subs	r6, #15
    22da:	0000      	movs	r0, r0
    22dc:	0e58      	lsrs	r0, r3, #25
    22de:	5010      	str	r0, [r2, r0]
    22e0:	0e24      	lsrs	r4, r4, #24
    22e2:	5010      	str	r0, [r2, r0]
    22e4:	0e84      	lsrs	r4, r0, #26
    22e6:	5010      	str	r0, [r2, r0]
    22e8:	0b65      	lsrs	r5, r4, #13
    22ea:	0000      	movs	r0, r0
    22ec:	b570      	push	{r4, r5, r6, lr}
    22ee:	4c09      	ldr	r4, [pc, #36]	; (0x2314)
    22f0:	4b09      	ldr	r3, [pc, #36]	; (0x2318)
    22f2:	64a0      	str	r0, [r4, #72]	; 0x48
    22f4:	4809      	ldr	r0, [pc, #36]	; (0x231c)
    22f6:	0021      	movs	r1, r4
    22f8:	0005      	movs	r5, r0
    22fa:	6363      	str	r3, [r4, #52]	; 0x34
    22fc:	3528      	adds	r5, #40	; 0x28
    22fe:	2228      	movs	r2, #40	; 0x28
    2300:	312c      	adds	r1, #44	; 0x2c
    2302:	782b      	ldrb	r3, [r5, #0]
    2304:	f000 f98a 	bl	0x261c
    2308:	2001      	movs	r0, #1
    230a:	7028      	strb	r0, [r5, #0]
    230c:	bf40      	sev
    230e:	3453      	adds	r4, #83	; 0x53
    2310:	7020      	strb	r0, [r4, #0]
    2312:	bd70      	pop	{r4, r5, r6, pc}
    2314:	0ac8      	lsrs	r0, r1, #11
    2316:	5010      	str	r0, [r2, r0]
    2318:	0e59      	lsrs	r1, r3, #25
    231a:	0000      	movs	r0, r0
    231c:	0e84      	lsrs	r4, r0, #26
    231e:	5010      	str	r0, [r2, r0]
    2320:	23c0      	movs	r3, #192	; 0xc0
    2322:	2200      	movs	r2, #0
    2324:	055b      	lsls	r3, r3, #21
    2326:	609a      	str	r2, [r3, #8]
    2328:	4a04      	ldr	r2, [pc, #16]	; (0x233c)
    232a:	4905      	ldr	r1, [pc, #20]	; (0x2340)
    232c:	601a      	str	r2, [r3, #0]
    232e:	001a      	movs	r2, r3
    2330:	32f4      	adds	r2, #244	; 0xf4
    2332:	6011      	str	r1, [r2, #0]
    2334:	2201      	movs	r2, #1
    2336:	609a      	str	r2, [r3, #8]
    2338:	4770      	bx	lr
    233a:	46c0      	nop			; (mov r8, r8)
    233c:	0300      	lsls	r0, r0, #12
    233e:	001f      	movs	r7, r3
    2340:	0218      	lsls	r0, r3, #8
    2342:	0300      	lsls	r0, r0, #12
    2344:	b510      	push	{r4, lr}
    2346:	f7ff ffeb 	bl	0x2320
    234a:	2000      	movs	r0, #0
    234c:	bd10      	pop	{r4, pc}
    234e:	be00      	bkpt	0x0000
    2350:	22a0      	movs	r2, #160	; 0xa0
    2352:	2301      	movs	r3, #1
    2354:	b510      	push	{r4, lr}
    2356:	0552      	lsls	r2, r2, #21
    2358:	6053      	str	r3, [r2, #4]
    235a:	6852      	ldr	r2, [r2, #4]
    235c:	4a02      	ldr	r2, [pc, #8]	; (0x2368)
    235e:	2000      	movs	r0, #0
    2360:	6013      	str	r3, [r2, #0]
    2362:	f7fe fc21 	bl	0xba8
    2366:	bd10      	pop	{r4, pc}
    2368:	2000      	movs	r0, #0
    236a:	1400      	asrs	r0, r0, #16
    236c:	b5f8      	push	{r3, r4, r5, r6, r7, lr}
    236e:	0004      	movs	r4, r0
    2370:	0015      	movs	r5, r2
    2372:	001f      	movs	r7, r3
    2374:	1846      	adds	r6, r0, r1
    2376:	42b4      	cmp	r4, r6
    2378:	d205      	bcs.n	0x2386
    237a:	22c0      	movs	r2, #192	; 0xc0
    237c:	4b0c      	ldr	r3, [pc, #48]	; (0x23b0)
    237e:	0292      	lsls	r2, r2, #10
    2380:	681b      	ldr	r3, [r3, #0]
    2382:	4213      	tst	r3, r2
    2384:	d000      	beq.n	0x2388
    2386:	bdf8      	pop	{r3, r4, r5, r6, r7, pc}
    2388:	1e6b      	subs	r3, r5, #1
    238a:	421c      	tst	r4, r3
    238c:	d108      	bne.n	0x23a0
    238e:	1b33      	subs	r3, r6, r4
    2390:	42ab      	cmp	r3, r5
    2392:	d305      	bcc.n	0x23a0
    2394:	0020      	movs	r0, r4
    2396:	0039      	movs	r1, r7
    2398:	f7ff fa62 	bl	0x1860
    239c:	1964      	adds	r4, r4, r5
    239e:	e7ea      	b.n	0x2376
    23a0:	0020      	movs	r0, r4
    23a2:	2120      	movs	r1, #32
    23a4:	f7ff fa5c 	bl	0x1860
    23a8:	2380      	movs	r3, #128	; 0x80
    23aa:	015b      	lsls	r3, r3, #5
    23ac:	18e4      	adds	r4, r4, r3
    23ae:	e7e2      	b.n	0x2376
    23b0:	801c      	strh	r4, [r3, #0]
    23b2:	4001      	ands	r1, r0
    23b4:	b5f8      	push	{r3, r4, r5, r6, r7, lr}
    23b6:	0005      	movs	r5, r0
    23b8:	000f      	movs	r7, r1
    23ba:	0004      	movs	r4, r0
    23bc:	1886      	adds	r6, r0, r2
    23be:	1b79      	subs	r1, r7, r5
    23c0:	1909      	adds	r1, r1, r4
    23c2:	42b4      	cmp	r4, r6
    23c4:	d205      	bcs.n	0x23d2
    23c6:	22c0      	movs	r2, #192	; 0xc0
    23c8:	4b05      	ldr	r3, [pc, #20]	; (0x23e0)
    23ca:	0292      	lsls	r2, r2, #10
    23cc:	681b      	ldr	r3, [r3, #0]
    23ce:	4213      	tst	r3, r2
    23d0:	d000      	beq.n	0x23d4
    23d2:	bdf8      	pop	{r3, r4, r5, r6, r7, pc}
    23d4:	0020      	movs	r0, r4
    23d6:	3401      	adds	r4, #1
    23d8:	f7ff fa5d 	bl	0x1896
    23dc:	34ff      	adds	r4, #255	; 0xff
    23de:	e7ee      	b.n	0x23be
    23e0:	801c      	strh	r4, [r3, #0]
    23e2:	4001      	ands	r1, r0
    23e4:	2301      	movs	r3, #1
    23e6:	b5f0      	push	{r4, r5, r6, r7, lr}
    23e8:	b085      	sub	sp, #20
    23ea:	425b      	negs	r3, r3
    23ec:	af03      	add	r7, sp, #12
    23ee:	803b      	strh	r3, [r7, #0]
    23f0:	23c0      	movs	r3, #192	; 0xc0
    23f2:	2200      	movs	r2, #0
    23f4:	055b      	lsls	r3, r3, #21
    23f6:	609a      	str	r2, [r3, #8]
    23f8:	6a9a      	ldr	r2, [r3, #40]	; 0x28
    23fa:	6c9a      	ldr	r2, [r3, #72]	; 0x48
    23fc:	2206      	movs	r2, #6
    23fe:	615a      	str	r2, [r3, #20]
    2400:	22e0      	movs	r2, #224	; 0xe0
    2402:	02d2      	lsls	r2, r2, #11
    2404:	601a      	str	r2, [r3, #0]
    2406:	2201      	movs	r2, #1
    2408:	4c1f      	ldr	r4, [pc, #124]	; (0x2488)
    240a:	611a      	str	r2, [r3, #16]
    240c:	609a      	str	r2, [r3, #8]
    240e:	6826      	ldr	r6, [r4, #0]
    2410:	238c      	movs	r3, #140	; 0x8c
    2412:	0032      	movs	r2, r6
    2414:	2584      	movs	r5, #132	; 0x84
    2416:	439a      	bics	r2, r3
    2418:	2003      	movs	r0, #3
    241a:	4315      	orrs	r5, r2
    241c:	f7fe fbc4 	bl	0xba8
    2420:	2302      	movs	r3, #2
    2422:	9301      	str	r3, [sp, #4]
    2424:	2380      	movs	r3, #128	; 0x80
    2426:	6025      	str	r5, [r4, #0]
    2428:	011b      	lsls	r3, r3, #4
    242a:	6065      	str	r5, [r4, #4]
    242c:	60a5      	str	r5, [r4, #8]
    242e:	60e5      	str	r5, [r4, #12]
    2430:	3b01      	subs	r3, #1
    2432:	d1fd      	bne.n	0x2430
    2434:	2300      	movs	r3, #0
    2436:	2204      	movs	r2, #4
    2438:	0019      	movs	r1, r3
    243a:	0018      	movs	r0, r3
    243c:	f7ff f998 	bl	0x1770
    2440:	230c      	movs	r3, #12
    2442:	2108      	movs	r1, #8
    2444:	439d      	bics	r5, r3
    2446:	2002      	movs	r0, #2
    2448:	430d      	orrs	r5, r1
    244a:	f7fe fbad 	bl	0xba8
    244e:	9901      	ldr	r1, [sp, #4]
    2450:	2901      	cmp	r1, #1
    2452:	d116      	bne.n	0x2482
    2454:	220c      	movs	r2, #12
    2456:	6026      	str	r6, [r4, #0]
    2458:	6066      	str	r6, [r4, #4]
    245a:	4396      	bics	r6, r2
    245c:	0033      	movs	r3, r6
    245e:	2608      	movs	r6, #8
    2460:	431e      	orrs	r6, r3
    2462:	60a6      	str	r6, [r4, #8]
    2464:	2002      	movs	r0, #2
    2466:	60e6      	str	r6, [r4, #12]
    2468:	f7fe fb9e 	bl	0xba8
    246c:	2300      	movs	r3, #0
    246e:	2202      	movs	r2, #2
    2470:	0019      	movs	r1, r3
    2472:	0038      	movs	r0, r7
    2474:	f7ff f97c 	bl	0x1770
    2478:	2200      	movs	r2, #0
    247a:	4b04      	ldr	r3, [pc, #16]	; (0x248c)
    247c:	601a      	str	r2, [r3, #0]
    247e:	b005      	add	sp, #20
    2480:	bdf0      	pop	{r4, r5, r6, r7, pc}
    2482:	2301      	movs	r3, #1
    2484:	e7cd      	b.n	0x2422
    2486:	46c0      	nop			; (mov r8, r8)
    2488:	0008      	movs	r0, r1
    248a:	4002      	ands	r2, r0
    248c:	800c      	strh	r4, [r1, #0]
    248e:	4001      	ands	r1, r0
    2490:	2090      	movs	r0, #144	; 0x90
    2492:	b510      	push	{r4, lr}
    2494:	0080      	lsls	r0, r0, #2
    2496:	f7fd fe7e 	bl	0x196
    249a:	2200      	movs	r2, #0
    249c:	4b03      	ldr	r3, [pc, #12]	; (0x24ac)
    249e:	605a      	str	r2, [r3, #4]
    24a0:	60da      	str	r2, [r3, #12]
    24a2:	615a      	str	r2, [r3, #20]
    24a4:	61da      	str	r2, [r3, #28]
    24a6:	625a      	str	r2, [r3, #36]	; 0x24
    24a8:	62da      	str	r2, [r3, #44]	; 0x2c
    24aa:	bd10      	pop	{r4, pc}
    24ac:	8000      	strh	r0, [r0, #0]
    24ae:	4001      	ands	r1, r0
    24b0:	b510      	push	{r4, lr}
    24b2:	f7ff ffed 	bl	0x2490
    24b6:	f7ff ff95 	bl	0x23e4
    24ba:	4b04      	ldr	r3, [pc, #16]	; (0x24cc)
    24bc:	681b      	ldr	r3, [r3, #0]
    24be:	2b00      	cmp	r3, #0
    24c0:	d001      	beq.n	0x24c6
    24c2:	f7fe fd19 	bl	0xef8
    24c6:	2000      	movs	r0, #0
    24c8:	bd10      	pop	{r4, pc}
    24ca:	46c0      	nop			; (mov r8, r8)
    24cc:	0f64      	lsrs	r4, r4, #29
    24ce:	5010      	str	r0, [r2, r0]
    24d0:	b5f8      	push	{r3, r4, r5, r6, r7, lr}
    24d2:	482a      	ldr	r0, [pc, #168]	; (0x257c)
    24d4:	f7fd fe5f 	bl	0x196
    24d8:	2202      	movs	r2, #2
    24da:	4b29      	ldr	r3, [pc, #164]	; (0x2580)
    24dc:	681b      	ldr	r3, [r3, #0]
    24de:	4213      	tst	r3, r2
    24e0:	d008      	beq.n	0x24f4
    24e2:	2105      	movs	r1, #5
    24e4:	4b27      	ldr	r3, [pc, #156]	; (0x2584)
    24e6:	6019      	str	r1, [r3, #0]
    24e8:	23d0      	movs	r3, #208	; 0xd0
    24ea:	061b      	lsls	r3, r3, #24
    24ec:	631a      	str	r2, [r3, #48]	; 0x30
    24ee:	641a      	str	r2, [r3, #64]	; 0x40
    24f0:	2200      	movs	r2, #0
    24f2:	641a      	str	r2, [r3, #64]	; 0x40
    24f4:	23c8      	movs	r3, #200	; 0xc8
    24f6:	005b      	lsls	r3, r3, #1
    24f8:	3b01      	subs	r3, #1
    24fa:	d1fd      	bne.n	0x24f8
    24fc:	20d0      	movs	r0, #208	; 0xd0
    24fe:	2409      	movs	r4, #9
    2500:	2200      	movs	r2, #0
    2502:	2504      	movs	r5, #4
    2504:	2101      	movs	r1, #1
    2506:	0600      	lsls	r0, r0, #24
    2508:	002b      	movs	r3, r5
    250a:	3b01      	subs	r3, #1
    250c:	d1fd      	bne.n	0x250a
    250e:	6883      	ldr	r3, [r0, #8]
    2510:	3c01      	subs	r4, #1
    2512:	085b      	lsrs	r3, r3, #1
    2514:	400b      	ands	r3, r1
    2516:	18d2      	adds	r2, r2, r3
    2518:	2c00      	cmp	r4, #0
    251a:	d1f5      	bne.n	0x2508
    251c:	2a04      	cmp	r2, #4
    251e:	d923      	bls.n	0x2568
    2520:	26c0      	movs	r6, #192	; 0xc0
    2522:	f7ff ffb5 	bl	0x2490
    2526:	f7ff ff5d 	bl	0x23e4
    252a:	0576      	lsls	r6, r6, #21
    252c:	2700      	movs	r7, #0
    252e:	22c0      	movs	r2, #192	; 0xc0
    2530:	60b7      	str	r7, [r6, #8]
    2532:	6833      	ldr	r3, [r6, #0]
    2534:	4d14      	ldr	r5, [pc, #80]	; (0x2588)
    2536:	4393      	bics	r3, r2
    2538:	b2e2      	uxtb	r2, r4
    253a:	4313      	orrs	r3, r2
    253c:	6033      	str	r3, [r6, #0]
    253e:	2301      	movs	r3, #1
    2540:	0029      	movs	r1, r5
    2542:	60b3      	str	r3, [r6, #8]
    2544:	0038      	movs	r0, r7
    2546:	f7ff f947 	bl	0x17d8
    254a:	2201      	movs	r2, #1
    254c:	21fc      	movs	r1, #252	; 0xfc
    254e:	0028      	movs	r0, r5
    2550:	4252      	negs	r2, r2
    2552:	f000 f82f 	bl	0x25b4
    2556:	4b0d      	ldr	r3, [pc, #52]	; (0x258c)
    2558:	681b      	ldr	r3, [r3, #0]
    255a:	4298      	cmp	r0, r3
    255c:	d008      	beq.n	0x2570
    255e:	2380      	movs	r3, #128	; 0x80
    2560:	3440      	adds	r4, #64	; 0x40
    2562:	019b      	lsls	r3, r3, #6
    2564:	429c      	cmp	r4, r3
    2566:	d1e1      	bne.n	0x252c
    2568:	2100      	movs	r1, #0
    256a:	0008      	movs	r0, r1
    256c:	f7ff f9ae 	bl	0x18cc
    2570:	f7ff feee 	bl	0x2350
    2574:	3501      	adds	r5, #1
    2576:	46be      	mov	lr, r7
    2578:	4728      	bx	r5
    257a:	46c0      	nop			; (mov r8, r8)
    257c:	0240      	lsls	r0, r0, #9
    257e:	0020      	movs	r0, r4
    2580:	c000      	stmia	r0!, {}
    2582:	4006      	ands	r6, r0
    2584:	800c      	strh	r4, [r1, #0]
    2586:	4001      	ands	r1, r0
    2588:	1f00      	subs	r0, r0, #4
    258a:	2004      	movs	r0, #4
    258c:	1ffc      	subs	r4, r7, #7
    258e:	2004      	movs	r0, #4
    2590:	4b05      	ldr	r3, [pc, #20]	; (0x25a8)
    2592:	b510      	push	{r4, lr}
    2594:	220a      	movs	r2, #10
    2596:	60d8      	str	r0, [r3, #12]
    2598:	6119      	str	r1, [r3, #16]
    259a:	4804      	ldr	r0, [pc, #16]	; (0x25ac)
    259c:	4904      	ldr	r1, [pc, #16]	; (0x25b0)
    259e:	f7fe fa41 	bl	0xa24
    25a2:	bf30      	wfi
    25a4:	e7fd      	b.n	0x25a2
    25a6:	46c0      	nop			; (mov r8, r8)
    25a8:	8000      	strh	r0, [r0, #0]
    25aa:	4005      	ands	r5, r0
    25ac:	1b89      	subs	r1, r1, r6
    25ae:	0000      	movs	r0, r0
    25b0:	2000      	movs	r0, #0
    25b2:	2004      	movs	r0, #4
    25b4:	b530      	push	{r4, r5, lr}
    25b6:	1809      	adds	r1, r1, r0
    25b8:	4d5d      	ldr	r5, [pc, #372]	; (0x2730)
    25ba:	e00c      	b.n	0x25d6
    25bc:	7804      	ldrb	r4, [r0, #0]
    25be:	ba13      	rev	r3, r2
    25c0:	405c      	eors	r4, r3
    25c2:	0624      	lsls	r4, r4, #24
    25c4:	2308      	movs	r3, #8
    25c6:	0064      	lsls	r4, r4, #1
    25c8:	d300      	bcc.n	0x25cc
    25ca:	406c      	eors	r4, r5
    25cc:	3b01      	subs	r3, #1
    25ce:	d1fa      	bne.n	0x25c6
    25d0:	0212      	lsls	r2, r2, #8
    25d2:	4062      	eors	r2, r4
    25d4:	3001      	adds	r0, #1
    25d6:	4288      	cmp	r0, r1
    25d8:	dbf0      	blt.n	0x25bc
    25da:	1c10      	adds	r0, r2, #0
    25dc:	bd30      	pop	{r4, r5, pc}
    25de:	b530      	push	{r4, r5, lr}
    25e0:	4249      	negs	r1, r1
    25e2:	5c43      	ldrb	r3, [r0, r1]
    25e4:	3201      	adds	r2, #1
    25e6:	0a1c      	lsrs	r4, r3, #8
    25e8:	41ad      	sbcs	r5, r5
    25ea:	d105      	bne.n	0x25f8
    25ec:	b25d      	sxtb	r5, r3
    25ee:	3101      	adds	r1, #1
    25f0:	5c44      	ldrb	r4, [r0, r1]
    25f2:	41aa      	sbcs	r2, r5
    25f4:	1b14      	subs	r4, r2, r4
    25f6:	5d63      	ldrb	r3, [r4, r5]
    25f8:	5553      	strb	r3, [r2, r5]
    25fa:	3501      	adds	r5, #1
    25fc:	d1fb      	bne.n	0x25f6
    25fe:	3101      	adds	r1, #1
    2600:	d1ef      	bne.n	0x25e2
    2602:	bd30      	pop	{r4, r5, pc}
    2604:	4684      	mov	ip, r0
    2606:	2a08      	cmp	r2, #8
    2608:	d33a      	bcc.n	0x2680
    260a:	b470      	push	{r4, r5, r6}
    260c:	e01c      	b.n	0x2648
    260e:	3a01      	subs	r2, #1
    2610:	5c8b      	ldrb	r3, [r1, r2]
    2612:	5483      	strb	r3, [r0, r2]
    2614:	d1fb      	bne.n	0x260e
    2616:	4660      	mov	r0, ip
    2618:	4770      	bx	lr
    261a:	46c0      	nop			; (mov r8, r8)
    261c:	4684      	mov	ip, r0
    261e:	2a08      	cmp	r2, #8
    2620:	d32e      	bcc.n	0x2680
    2622:	1a43      	subs	r3, r0, r1
    2624:	079b      	lsls	r3, r3, #30
    2626:	d1f2      	bne.n	0x260e
    2628:	b470      	push	{r4, r5, r6}
    262a:	1a09      	subs	r1, r1, r0
    262c:	1c05      	adds	r5, r0, #0
    262e:	0843      	lsrs	r3, r0, #1
    2630:	d302      	bcc.n	0x2638
    2632:	5c44      	ldrb	r4, [r0, r1]
    2634:	7004      	strb	r4, [r0, #0]
    2636:	3001      	adds	r0, #1
    2638:	0883      	lsrs	r3, r0, #2
    263a:	d302      	bcc.n	0x2642
    263c:	5a44      	ldrh	r4, [r0, r1]
    263e:	8004      	strh	r4, [r0, #0]
    2640:	3002      	adds	r0, #2
    2642:	1809      	adds	r1, r1, r0
    2644:	1a2d      	subs	r5, r5, r0
    2646:	1952      	adds	r2, r2, r5
    2648:	3a10      	subs	r2, #16
    264a:	d303      	bcc.n	0x2654
    264c:	c978      	ldmia	r1!, {r3, r4, r5, r6}
    264e:	c078      	stmia	r0!, {r3, r4, r5, r6}
    2650:	3a10      	subs	r2, #16
    2652:	d2fb      	bcs.n	0x264c
    2654:	0752      	lsls	r2, r2, #29
    2656:	d301      	bcc.n	0x265c
    2658:	c918      	ldmia	r1!, {r3, r4}
    265a:	c018      	stmia	r0!, {r3, r4}
    265c:	0052      	lsls	r2, r2, #1
    265e:	d301      	bcc.n	0x2664
    2660:	c908      	ldmia	r1!, {r3}
    2662:	c008      	stmia	r0!, {r3}
    2664:	d009      	beq.n	0x267a
    2666:	0052      	lsls	r2, r2, #1
    2668:	d304      	bcc.n	0x2674
    266a:	880b      	ldrh	r3, [r1, #0]
    266c:	8003      	strh	r3, [r0, #0]
    266e:	d004      	beq.n	0x267a
    2670:	3102      	adds	r1, #2
    2672:	3002      	adds	r0, #2
    2674:	d001      	beq.n	0x267a
    2676:	780b      	ldrb	r3, [r1, #0]
    2678:	7003      	strb	r3, [r0, #0]
    267a:	bc70      	pop	{r4, r5, r6}
    267c:	4660      	mov	r0, ip
    267e:	4770      	bx	lr
    2680:	a309      	add	r3, pc, #36	; (adr r3, 0x26a8)
    2682:	0092      	lsls	r2, r2, #2
    2684:	1a9b      	subs	r3, r3, r2
    2686:	3301      	adds	r3, #1
    2688:	4718      	bx	r3
    268a:	46c0      	nop			; (mov r8, r8)
    268c:	798b      	ldrb	r3, [r1, #6]
    268e:	7183      	strb	r3, [r0, #6]
    2690:	794b      	ldrb	r3, [r1, #5]
    2692:	7143      	strb	r3, [r0, #5]
    2694:	790b      	ldrb	r3, [r1, #4]
    2696:	7103      	strb	r3, [r0, #4]
    2698:	78cb      	ldrb	r3, [r1, #3]
    269a:	70c3      	strb	r3, [r0, #3]
    269c:	788b      	ldrb	r3, [r1, #2]
    269e:	7083      	strb	r3, [r0, #2]
    26a0:	784b      	ldrb	r3, [r1, #1]
    26a2:	7043      	strb	r3, [r0, #1]
    26a4:	780b      	ldrb	r3, [r1, #0]
    26a6:	7003      	strb	r3, [r0, #0]
    26a8:	4660      	mov	r0, ip
    26aa:	4770      	bx	lr
    26ac:	4684      	mov	ip, r0
    26ae:	b2c9      	uxtb	r1, r1
    26b0:	020b      	lsls	r3, r1, #8
    26b2:	4319      	orrs	r1, r3
    26b4:	e011      	b.n	0x26da
    26b6:	46c0      	nop			; (mov r8, r8)
    26b8:	4684      	mov	ip, r0
    26ba:	2a08      	cmp	r2, #8
    26bc:	d32a      	bcc.n	0x2714
    26be:	0843      	lsrs	r3, r0, #1
    26c0:	d301      	bcc.n	0x26c6
    26c2:	7001      	strb	r1, [r0, #0]
    26c4:	3001      	adds	r0, #1
    26c6:	b2c9      	uxtb	r1, r1
    26c8:	020b      	lsls	r3, r1, #8
    26ca:	4319      	orrs	r1, r3
    26cc:	0883      	lsrs	r3, r0, #2
    26ce:	d301      	bcc.n	0x26d4
    26d0:	8001      	strh	r1, [r0, #0]
    26d2:	3002      	adds	r0, #2
    26d4:	4663      	mov	r3, ip
    26d6:	1a1b      	subs	r3, r3, r0
    26d8:	18d2      	adds	r2, r2, r3
    26da:	ba0b      	rev	r3, r1
    26dc:	4319      	orrs	r1, r3
    26de:	1c0b      	adds	r3, r1, #0
    26e0:	3a10      	subs	r2, #16
    26e2:	d307      	bcc.n	0x26f4
    26e4:	b430      	push	{r4, r5}
    26e6:	1c0c      	adds	r4, r1, #0
    26e8:	1c0d      	adds	r5, r1, #0
    26ea:	46c0      	nop			; (mov r8, r8)
    26ec:	c03a      	stmia	r0!, {r1, r3, r4, r5}
    26ee:	3a10      	subs	r2, #16
    26f0:	d2fc      	bcs.n	0x26ec
    26f2:	bc30      	pop	{r4, r5}
    26f4:	0752      	lsls	r2, r2, #29
    26f6:	d300      	bcc.n	0x26fa
    26f8:	c00a      	stmia	r0!, {r1, r3}
    26fa:	0052      	lsls	r2, r2, #1
    26fc:	d300      	bcc.n	0x2700
    26fe:	c002      	stmia	r0!, {r1}
    2700:	d006      	beq.n	0x2710
    2702:	0052      	lsls	r2, r2, #1
    2704:	d302      	bcc.n	0x270c
    2706:	8001      	strh	r1, [r0, #0]
    2708:	d002      	beq.n	0x2710
    270a:	3002      	adds	r0, #2
    270c:	d000      	beq.n	0x2710
    270e:	7001      	strb	r1, [r0, #0]
    2710:	4660      	mov	r0, ip
    2712:	4770      	bx	lr
    2714:	a305      	add	r3, pc, #20	; (adr r3, 0x272c)
    2716:	1a9b      	subs	r3, r3, r2
    2718:	1a9b      	subs	r3, r3, r2
    271a:	3301      	adds	r3, #1
    271c:	4718      	bx	r3
    271e:	7181      	strb	r1, [r0, #6]
    2720:	7141      	strb	r1, [r0, #5]
    2722:	7101      	strb	r1, [r0, #4]
    2724:	70c1      	strb	r1, [r0, #3]
    2726:	7081      	strb	r1, [r0, #2]
    2728:	7041      	strb	r1, [r0, #1]
    272a:	7001      	strb	r1, [r0, #0]
    272c:	4660      	mov	r0, ip
    272e:	4770      	bx	lr
    2730:	1db7      	adds	r7, r6, #6
    2732:	04c1      	lsls	r1, r0, #19
    2734:	b505      	push	{r0, r2, lr}
    2736:	4608      	mov	r0, r1
    2738:	461a      	mov	r2, r3
    273a:	bd0a      	pop	{r1, r3, pc}
    273c:	0dc2      	lsrs	r2, r0, #23
    273e:	0240      	lsls	r0, r0, #9
    2740:	0a40      	lsrs	r0, r0, #9
    2742:	2401      	movs	r4, #1
    2744:	05e4      	lsls	r4, r4, #23
    2746:	4320      	orrs	r0, r4
    2748:	2aff      	cmp	r2, #255	; 0xff
    274a:	b2d2      	uxtb	r2, r2
    274c:	d900      	bls.n	0x2750
    274e:	4240      	negs	r0, r0
    2750:	3a01      	subs	r2, #1
    2752:	2afe      	cmp	r2, #254	; 0xfe
    2754:	d201      	bcs.n	0x275a
    2756:	3a7e      	subs	r2, #126	; 0x7e
    2758:	4770      	bx	lr
    275a:	2800      	cmp	r0, #0
    275c:	4620      	mov	r0, r4
    275e:	d500      	bpl.n	0x2762
    2760:	4240      	negs	r0, r0
    2762:	3a7e      	subs	r2, #126	; 0x7e
    2764:	0092      	lsls	r2, r2, #2
    2766:	3280      	adds	r2, #128	; 0x80
    2768:	4770      	bx	lr
    276a:	0fc4      	lsrs	r4, r0, #31
    276c:	07e4      	lsls	r4, r4, #31
    276e:	d504      	bpl.n	0x277a
    2770:	2d00      	cmp	r5, #0
    2772:	d000      	beq.n	0x2776
    2774:	3001      	adds	r0, #1
    2776:	4240      	negs	r0, r0
    2778:	d403      	bmi.n	0x2782
    277a:	3a01      	subs	r2, #1
    277c:	1800      	adds	r0, r0, r0
    277e:	d012      	beq.n	0x27a6
    2780:	d5fb      	bpl.n	0x277a
    2782:	3281      	adds	r2, #129	; 0x81
    2784:	d101      	bne.n	0x278a
    2786:	3080      	adds	r0, #128	; 0x80
    2788:	d205      	bcs.n	0x2796
    278a:	3080      	adds	r0, #128	; 0x80
    278c:	d203      	bcs.n	0x2796
    278e:	2d00      	cmp	r5, #0
    2790:	d00f      	beq.n	0x27b2
    2792:	0040      	lsls	r0, r0, #1
    2794:	3a01      	subs	r2, #1
    2796:	2afe      	cmp	r2, #254	; 0xfe
    2798:	da06      	bge.n	0x27a8
    279a:	3201      	adds	r2, #1
    279c:	dd07      	ble.n	0x27ae
    279e:	0a40      	lsrs	r0, r0, #9
    27a0:	05d2      	lsls	r2, r2, #23
    27a2:	4310      	orrs	r0, r2
    27a4:	4320      	orrs	r0, r4
    27a6:	4770      	bx	lr
    27a8:	20ff      	movs	r0, #255	; 0xff
    27aa:	05c0      	lsls	r0, r0, #23
    27ac:	e7fa      	b.n	0x27a4
    27ae:	2000      	movs	r0, #0
    27b0:	4770      	bx	lr
    27b2:	0605      	lsls	r5, r0, #24
    27b4:	d1ed      	bne.n	0x2792
    27b6:	0a40      	lsrs	r0, r0, #9
    27b8:	0280      	lsls	r0, r0, #10
    27ba:	e7eb      	b.n	0x2794
    27bc:	b283      	uxth	r3, r0
    27be:	140c      	asrs	r4, r1, #16
    27c0:	4363      	muls	r3, r4
    27c2:	1404      	asrs	r4, r0, #16
    27c4:	b28d      	uxth	r5, r1
    27c6:	436c      	muls	r4, r5
    27c8:	191b      	adds	r3, r3, r4
    27ca:	b284      	uxth	r4, r0
    27cc:	436c      	muls	r4, r5
    27ce:	0425      	lsls	r5, r4, #16
    27d0:	0c24      	lsrs	r4, r4, #16
    27d2:	191b      	adds	r3, r3, r4
    27d4:	1400      	asrs	r0, r0, #16
    27d6:	1409      	asrs	r1, r1, #16
    27d8:	4348      	muls	r0, r1
    27da:	02c0      	lsls	r0, r0, #11
    27dc:	06d9      	lsls	r1, r3, #27
    27de:	430d      	orrs	r5, r1
    27e0:	1159      	asrs	r1, r3, #5
    27e2:	1840      	adds	r0, r0, r1
    27e4:	4770      	bx	lr
    27e6:	0042      	lsls	r2, r0, #1
    27e8:	0e12      	lsrs	r2, r2, #24
    27ea:	d001      	beq.n	0x27f0
    27ec:	2aff      	cmp	r2, #255	; 0xff
    27ee:	d101      	bne.n	0x27f4
    27f0:	0dc0      	lsrs	r0, r0, #23
    27f2:	05c0      	lsls	r0, r0, #23
    27f4:	004a      	lsls	r2, r1, #1
    27f6:	0e12      	lsrs	r2, r2, #24
    27f8:	d001      	beq.n	0x27fe
    27fa:	2aff      	cmp	r2, #255	; 0xff
    27fc:	d101      	bne.n	0x2802
    27fe:	0dc9      	lsrs	r1, r1, #23
    2800:	05c9      	lsls	r1, r1, #23
    2802:	2201      	movs	r2, #1
    2804:	4041      	eors	r1, r0
    2806:	d409      	bmi.n	0x281c
    2808:	4041      	eors	r1, r0
    280a:	d500      	bpl.n	0x280e
    280c:	4252      	negs	r2, r2
    280e:	4288      	cmp	r0, r1
    2810:	dc02      	bgt.n	0x2818
    2812:	db00      	blt.n	0x2816
    2814:	2200      	movs	r2, #0
    2816:	4252      	negs	r2, r2
    2818:	1e10      	subs	r0, r2, #0
    281a:	4770      	bx	lr
    281c:	4301      	orrs	r1, r0
    281e:	1849      	adds	r1, r1, r1
    2820:	d0f8      	beq.n	0x2814
    2822:	2800      	cmp	r0, #0
    2824:	daf8      	bge.n	0x2818
    2826:	e7f6      	b.n	0x2816
    2828:	2100      	movs	r1, #0
    282a:	b510      	push	{r4, lr}
    282c:	f7ff ff86 	bl	0x273c
    2830:	0013      	movs	r3, r2
    2832:	3382      	adds	r3, #130	; 0x82
    2834:	d410      	bmi.n	0x2858
    2836:	440a      	add	r2, r1
    2838:	3a17      	subs	r2, #23
    283a:	db07      	blt.n	0x284c
    283c:	2a07      	cmp	r2, #7
    283e:	dd19      	ble.n	0x2874
    2840:	17c1      	asrs	r1, r0, #31
    2842:	43c9      	mvns	r1, r1
    2844:	2001      	movs	r0, #1
    2846:	07c0      	lsls	r0, r0, #31
    2848:	4048      	eors	r0, r1
    284a:	bd10      	pop	{r4, pc}
    284c:	4252      	negs	r2, r2
    284e:	2a20      	cmp	r2, #32
    2850:	db00      	blt.n	0x2854
    2852:	2220      	movs	r2, #32
    2854:	4110      	asrs	r0, r2
    2856:	bd10      	pop	{r4, pc}
    2858:	2000      	movs	r0, #0
    285a:	bd10      	pop	{r4, pc}
    285c:	2100      	movs	r1, #0
    285e:	b510      	push	{r4, lr}
    2860:	f7ff ff6c 	bl	0x273c
    2864:	440a      	add	r2, r1
    2866:	0001      	movs	r1, r0
    2868:	d4ee      	bmi.n	0x2848
    286a:	3a17      	subs	r2, #23
    286c:	dbee      	blt.n	0x284c
    286e:	43c1      	mvns	r1, r0
    2870:	2a08      	cmp	r2, #8
    2872:	dce9      	bgt.n	0x2848
    2874:	4090      	lsls	r0, r2
    2876:	bd10      	pop	{r4, pc}
    2878:	2200      	movs	r2, #0
    287a:	b530      	push	{r4, r5, lr}
    287c:	2900      	cmp	r1, #0
    287e:	d506      	bpl.n	0x288e
    2880:	07cd      	lsls	r5, r1, #31
    2882:	4305      	orrs	r5, r0
    2884:	0848      	lsrs	r0, r1, #1
    2886:	3a01      	subs	r2, #1
    2888:	e010      	b.n	0x28ac
    288a:	2200      	movs	r2, #0
    288c:	b530      	push	{r4, r5, lr}
    288e:	0005      	movs	r5, r0
    2890:	430d      	orrs	r5, r1
    2892:	d015      	beq.n	0x28c0
    2894:	17cd      	asrs	r5, r1, #31
    2896:	160c      	asrs	r4, r1, #24
    2898:	42ac      	cmp	r4, r5
    289a:	d105      	bne.n	0x28a8
    289c:	01c9      	lsls	r1, r1, #7
    289e:	0e44      	lsrs	r4, r0, #25
    28a0:	4321      	orrs	r1, r4
    28a2:	01c0      	lsls	r0, r0, #7
    28a4:	3207      	adds	r2, #7
    28a6:	e7f6      	b.n	0x2896
    28a8:	0005      	movs	r5, r0
    28aa:	0008      	movs	r0, r1
    28ac:	4252      	negs	r2, r2
    28ae:	323d      	adds	r2, #61	; 0x3d
    28b0:	e004      	b.n	0x28bc
    28b2:	2100      	movs	r1, #0
    28b4:	b530      	push	{r4, r5, lr}
    28b6:	221d      	movs	r2, #29
    28b8:	1a52      	subs	r2, r2, r1
    28ba:	2500      	movs	r5, #0
    28bc:	f7ff ff55 	bl	0x276a
    28c0:	bd30      	pop	{r4, r5, pc}
    28c2:	2100      	movs	r1, #0
    28c4:	b530      	push	{r4, r5, lr}
    28c6:	2800      	cmp	r0, #0
    28c8:	daf5      	bge.n	0x28b6
    28ca:	221e      	movs	r2, #30
    28cc:	1a52      	subs	r2, r2, r1
    28ce:	07c5      	lsls	r5, r0, #31
    28d0:	0840      	lsrs	r0, r0, #1
    28d2:	e7f3      	b.n	0x28bc
    28d4:	2500      	movs	r5, #0
    28d6:	46a4      	mov	ip, r4
    28d8:	e00d      	b.n	0x28f6
    28da:	2900      	cmp	r1, #0
    28dc:	dc02      	bgt.n	0x28e4
    28de:	e005      	b.n	0x28ec
    28e0:	2a00      	cmp	r2, #0
    28e2:	da03      	bge.n	0x28ec
    28e4:	1b89      	subs	r1, r1, r6
    28e6:	427f      	negs	r7, r7
    28e8:	1912      	adds	r2, r2, r4
    28ea:	e001      	b.n	0x28f0
    28ec:	1989      	adds	r1, r1, r6
    28ee:	1b12      	subs	r2, r2, r4
    28f0:	4664      	mov	r4, ip
    28f2:	4367      	muls	r7, r4
    28f4:	1bc0      	subs	r0, r0, r7
    28f6:	cb10      	ldmia	r3!, {r4}
    28f8:	0864      	lsrs	r4, r4, #1
    28fa:	d200      	bcs.n	0x28fe
    28fc:	3501      	adds	r5, #1
    28fe:	4606      	mov	r6, r0
    2900:	412e      	asrs	r6, r5
    2902:	460f      	mov	r7, r1
    2904:	412f      	asrs	r7, r5
    2906:	0864      	lsrs	r4, r4, #1
    2908:	4770      	bx	lr
    290a:	b5c0      	push	{r6, r7, lr}
    290c:	f7ff ffe2 	bl	0x28d4
    2910:	f7ff ffe6 	bl	0x28e0
    2914:	d3fc      	bcc.n	0x2910
    2916:	1386      	asrs	r6, r0, #14
    2918:	138f      	asrs	r7, r1, #14
    291a:	10d2      	asrs	r2, r2, #3
    291c:	4356      	muls	r6, r2
    291e:	4357      	muls	r7, r2
    2920:	4664      	mov	r4, ip
    2922:	4367      	muls	r7, r4
    2924:	1336      	asrs	r6, r6, #12
    2926:	133f      	asrs	r7, r7, #12
    2928:	1bc0      	subs	r0, r0, r7
    292a:	1989      	adds	r1, r1, r6
    292c:	bdc0      	pop	{r6, r7, pc}
    292e:	b5c0      	push	{r6, r7, lr}
    2930:	f7ff ffd0 	bl	0x28d4
    2934:	f7ff ffd1 	bl	0x28da
    2938:	d3fc      	bcc.n	0x2934
    293a:	2900      	cmp	r1, #0
    293c:	dc02      	bgt.n	0x2944
    293e:	1989      	adds	r1, r1, r6
    2940:	1b12      	subs	r2, r2, r4
    2942:	e001      	b.n	0x2948
    2944:	1b89      	subs	r1, r1, r6
    2946:	1912      	adds	r2, r2, r4
    2948:	1076      	asrs	r6, r6, #1
    294a:	1064      	asrs	r4, r4, #1
    294c:	d1f5      	bne.n	0x293a
    294e:	e7ed      	b.n	0x292c
    2950:	b530      	push	{r4, r5, lr}
    2952:	2118      	movs	r1, #24
    2954:	f7ff ff69 	bl	0x282a
    2958:	4c5d      	ldr	r4, [pc, #372]	; (0x2ad0)
    295a:	0924      	lsrs	r4, r4, #4
    295c:	1b00      	subs	r0, r0, r4
    295e:	dafd      	bge.n	0x295c
    2960:	1900      	adds	r0, r0, r4
    2962:	d4fd      	bmi.n	0x2960
    2964:	0082      	lsls	r2, r0, #2
    2966:	0065      	lsls	r5, r4, #1
    2968:	4853      	ldr	r0, [pc, #332]	; (0x2ab8)
    296a:	2100      	movs	r1, #0
    296c:	42a2      	cmp	r2, r4
    296e:	db02      	blt.n	0x2976
    2970:	1b52      	subs	r2, r2, r5
    2972:	4240      	negs	r0, r0
    2974:	e7fa      	b.n	0x296c
    2976:	00d2      	lsls	r2, r2, #3
    2978:	a355      	add	r3, pc, #340	; (adr r3, 0x2ad0)
    297a:	2401      	movs	r4, #1
    297c:	f7ff ffc5 	bl	0x290a
    2980:	3109      	adds	r1, #9
    2982:	2200      	movs	r2, #0
    2984:	2300      	movs	r3, #0
    2986:	2500      	movs	r5, #0
    2988:	f000 f80c 	bl	0x29a4
    298c:	f7ff feed 	bl	0x276a
    2990:	f7ff fed0 	bl	0x2734
    2994:	f000 f806 	bl	0x29a4
    2998:	e78f      	b.n	0x28ba
    299a:	b500      	push	{lr}
    299c:	f7ff ffd8 	bl	0x2950
    29a0:	4608      	mov	r0, r1
    29a2:	bd00      	pop	{pc}
    29a4:	2401      	movs	r4, #1
    29a6:	0764      	lsls	r4, r4, #29
    29a8:	42a0      	cmp	r0, r4
    29aa:	dc03      	bgt.n	0x29b4
    29ac:	4264      	negs	r4, r4
    29ae:	42a0      	cmp	r0, r4
    29b0:	dd00      	ble.n	0x29b4
    29b2:	4770      	bx	lr
    29b4:	0020      	movs	r0, r4
    29b6:	4770      	bx	lr
    29b8:	b570      	push	{r4, r5, r6, lr}
    29ba:	f7ff ffc9 	bl	0x2950
    29be:	e18c      	b.n	0x2cda
    29c0:	b530      	push	{r4, r5, lr}
    29c2:	2118      	movs	r1, #24
    29c4:	f7ff ff31 	bl	0x282a
    29c8:	1401      	asrs	r1, r0, #16
    29ca:	4a3c      	ldr	r2, [pc, #240]	; (0x2abc)
    29cc:	4351      	muls	r1, r2
    29ce:	14c9      	asrs	r1, r1, #19
    29d0:	3101      	adds	r1, #1
    29d2:	1049      	asrs	r1, r1, #1
    29d4:	b402      	push	{r1}
    29d6:	0142      	lsls	r2, r0, #5
    29d8:	4839      	ldr	r0, [pc, #228]	; (0x2ac0)
    29da:	4341      	muls	r1, r0
    29dc:	1a52      	subs	r2, r2, r1
    29de:	4839      	ldr	r0, [pc, #228]	; (0x2ac4)
    29e0:	2100      	movs	r1, #0
    29e2:	a348      	add	r3, pc, #288	; (adr r3, 0x2b04)
    29e4:	43cc      	mvns	r4, r1
    29e6:	f7ff ff90 	bl	0x290a
    29ea:	4408      	add	r0, r1
    29ec:	bc04      	pop	{r2}
    29ee:	e764      	b.n	0x28ba
    29f0:	b530      	push	{r4, r5, lr}
    29f2:	f7ff fea3 	bl	0x273c
    29f6:	0001      	movs	r1, r0
    29f8:	d415      	bmi.n	0x2a26
    29fa:	4933      	ldr	r1, [pc, #204]	; (0x2ac8)
    29fc:	f7ff fede 	bl	0x27bc
    2a00:	1051      	asrs	r1, r2, #1
    2a02:	d301      	bcc.n	0x2a08
    2a04:	3101      	adds	r1, #1
    2a06:	1040      	asrs	r0, r0, #1
    2a08:	b402      	push	{r1}
    2a0a:	4601      	mov	r1, r0
    2a0c:	4b2e      	ldr	r3, [pc, #184]	; (0x2ac8)
    2a0e:	009b      	lsls	r3, r3, #2
    2a10:	18c0      	adds	r0, r0, r3
    2a12:	1ac9      	subs	r1, r1, r3
    2a14:	2200      	movs	r2, #0
    2a16:	a33b      	add	r3, pc, #236	; (adr r3, 0x2b04)
    2a18:	43d4      	mvns	r4, r2
    2a1a:	f7ff ff88 	bl	0x292e
    2a1e:	4611      	mov	r1, r2
    2a20:	bc04      	pop	{r2}
    2a22:	0013      	movs	r3, r2
    2a24:	e749      	b.n	0x28ba
    2a26:	22ff      	movs	r2, #255	; 0xff
    2a28:	e7fb      	b.n	0x2a22
    2a2a:	b530      	push	{r4, r5, lr}
    2a2c:	f7ff ffe0 	bl	0x29f0
    2a30:	2b46      	cmp	r3, #70	; 0x46
    2a32:	dc0a      	bgt.n	0x2a4a
    2a34:	425b      	negs	r3, r3
    2a36:	2b46      	cmp	r3, #70	; 0x46
    2a38:	dc06      	bgt.n	0x2a48
    2a3a:	4824      	ldr	r0, [pc, #144]	; (0x2acc)
    2a3c:	4358      	muls	r0, r3
    2a3e:	3108      	adds	r1, #8
    2a40:	1109      	asrs	r1, r1, #4
    2a42:	1a08      	subs	r0, r1, r0
    2a44:	2205      	movs	r2, #5
    2a46:	e738      	b.n	0x28ba
    2a48:	43c0      	mvns	r0, r0
    2a4a:	22ff      	movs	r2, #255	; 0xff
    2a4c:	e735      	b.n	0x28ba
    2a4e:	b530      	push	{r4, r5, lr}
    2a50:	f7ff fe74 	bl	0x273c
    2a54:	f7ff fe6e 	bl	0x2734
    2a58:	f7ff fe70 	bl	0x273c
    2a5c:	0140      	lsls	r0, r0, #5
    2a5e:	0149      	lsls	r1, r1, #5
    2a60:	18d4      	adds	r4, r2, r3
    2a62:	1264      	asrs	r4, r4, #9
    2a64:	3401      	adds	r4, #1
    2a66:	d40a      	bmi.n	0x2a7e
    2a68:	1ad4      	subs	r4, r2, r3
    2a6a:	da05      	bge.n	0x2a78
    2a6c:	4264      	negs	r4, r4
    2a6e:	4120      	asrs	r0, r4
    2a70:	2c1c      	cmp	r4, #28
    2a72:	d30c      	bcc.n	0x2a8e
    2a74:	17c0      	asrs	r0, r0, #31
    2a76:	e00a      	b.n	0x2a8e
    2a78:	4121      	asrs	r1, r4
    2a7a:	2c1c      	cmp	r4, #28
    2a7c:	d307      	bcc.n	0x2a8e
    2a7e:	2800      	cmp	r0, #0
    2a80:	da03      	bge.n	0x2a8a
    2a82:	4813      	ldr	r0, [pc, #76]	; (0x2ad0)
    2a84:	17c9      	asrs	r1, r1, #31
    2a86:	4048      	eors	r0, r1
    2a88:	e013      	b.n	0x2ab2
    2a8a:	17c8      	asrs	r0, r1, #31
    2a8c:	e011      	b.n	0x2ab2
    2a8e:	2200      	movs	r2, #0
    2a90:	2800      	cmp	r0, #0
    2a92:	da02      	bge.n	0x2a9a
    2a94:	4240      	negs	r0, r0
    2a96:	4249      	negs	r1, r1
    2a98:	4a0d      	ldr	r2, [pc, #52]	; (0x2ad0)
    2a9a:	a30d      	add	r3, pc, #52	; (adr r3, 0x2ad0)
    2a9c:	2401      	movs	r4, #1
    2a9e:	f7ff ff46 	bl	0x292e
    2aa2:	4610      	mov	r0, r2
    2aa4:	4a0a      	ldr	r2, [pc, #40]	; (0x2ad0)
    2aa6:	1884      	adds	r4, r0, r2
    2aa8:	d202      	bcs.n	0x2ab0
    2aaa:	1a84      	subs	r4, r0, r2
    2aac:	d400      	bmi.n	0x2ab0
    2aae:	1aa0      	subs	r0, r4, r2
    2ab0:	3801      	subs	r0, #1
    2ab2:	2200      	movs	r2, #0
    2ab4:	e701      	b.n	0x28ba
    2ab6:	46c0      	nop			; (mov r8, r8)
    2ab8:	9db4      	ldr	r5, [sp, #720]	; 0x2d0
    2aba:	136e      	asrs	r6, r5, #13
    2abc:	1715      	asrs	r5, r2, #28
    2abe:	0000      	movs	r0, r0
    2ac0:	42ff      	cmn	r7, r7
    2ac2:	162e      	asrs	r6, r5, #24
    2ac4:	15ca      	asrs	r2, r1, #23
    2ac6:	2c9e      	cmp	r4, #158	; 0x9e
    2ac8:	c2b9      	stmia	r2!, {r0, r3, r4, r5, r7}
    2aca:	0593      	lsls	r3, r2, #22
    2acc:	e430      	b.n	0x2330
    2ace:	0162      	lsls	r2, r4, #5
    2ad0:	ed51 6487 	cfldrd	mvd6, [r1, #-540]	; 0xfffffde4
    2ad4:	ce0c      	ldmia	r6!, {r2, r3}
    2ad6:	3b58      	subs	r3, #88	; 0x58
    2ad8:	75f8      	strb	r0, [r7, #23]
    2ada:	1f5b      	subs	r3, r3, #5
    2adc:	dd4c      	ble.n	0x2b78
    2ade:	0fea      	lsrs	r2, r5, #31
    2ae0:	56ec      	ldrsb	r4, [r5, r3]
    2ae2:	07fd      	lsls	r5, r7, #31
    2ae4:	aab8      	add	r2, sp, #736	; 0x2e0
    2ae6:	03ff      	lsls	r7, r7, #15
    2ae8:	f554 01ff 	adcs.w	r1, r4, #8355840	; 0x7f8000
    2aec:	feac 00ff 	mcr2	0, 5, r0, cr12, cr15, {7}
    2af0:	ffd4 007f 	vshr.u16	q8, <illegal reg q15.5>, #12
    2af4:	fffc 003f 	vshr.u32	d16, d31, #4
    2af8:	fffc 001f 	vshr.u32	d16, d15, #4
    2afc:	0000      	movs	r0, r0
    2afe:	0010      	movs	r0, r2
    2b00:	0002      	movs	r2, r0
    2b02:	0008      	movs	r0, r1
    2b04:	a9ec      	add	r1, sp, #944	; 0x3b0
    2b06:	464f      	mov	r7, r9
    2b08:	a9ed      	add	r1, sp, #948	; 0x3b4
    2b0a:	464f      	mov	r7, r9
    2b0c:	5df4      	ldrb	r4, [r6, r7]
    2b0e:	20b1      	movs	r0, #177	; 0xb1
    2b10:	891c      	ldrh	r4, [r3, #8]
    2b12:	1015      	asrs	r5, r2, #32
    2b14:	ac44      	add	r4, sp, #272	; 0x110
    2b16:	0802      	lsrs	r2, r0, #32
    2b18:	ac45      	add	r4, sp, #276	; 0x114
    2b1a:	0802      	lsrs	r2, r0, #32
    2b1c:	5564      	strb	r4, [r4, r5]
    2b1e:	0400      	lsls	r0, r0, #16
    2b20:	0aac      	lsrs	r4, r5, #10
    2b22:	0200      	lsls	r0, r0, #8
    2b24:	0154      	lsls	r4, r2, #5
    2b26:	0100      	lsls	r0, r0, #4
    2b28:	002c      	movs	r4, r5
    2b2a:	0080      	lsls	r0, r0, #2
    2b2c:	0004      	movs	r4, r0
    2b2e:	0040      	lsls	r0, r0, #1
    2b30:	0004      	movs	r4, r0
    2b32:	0020      	movs	r0, r4
    2b34:	0000      	movs	r0, r0
    2b36:	0010      	movs	r0, r2
    2b38:	0000      	movs	r0, r0
    2b3a:	0008      	movs	r0, r1
    2b3c:	0003      	movs	r3, r0
    2b3e:	0008      	movs	r0, r1
    2b40:	4ab9      	ldr	r2, [pc, #740]	; (0x2e28)
    2b42:	4051      	eors	r1, r2
    2b44:	b570      	push	{r4, r5, r6, lr}
    2b46:	17c4      	asrs	r4, r0, #31
    2b48:	0042      	lsls	r2, r0, #1
    2b4a:	0e12      	lsrs	r2, r2, #24
    2b4c:	d051      	beq.n	0x2bf2
    2b4e:	2aff      	cmp	r2, #255	; 0xff
    2b50:	d052      	beq.n	0x2bf8
    2b52:	17cd      	asrs	r5, r1, #31
    2b54:	004b      	lsls	r3, r1, #1
    2b56:	0e1b      	lsrs	r3, r3, #24
    2b58:	d051      	beq.n	0x2bfe
    2b5a:	2bff      	cmp	r3, #255	; 0xff
    2b5c:	d052      	beq.n	0x2c04
    2b5e:	4eb3      	ldr	r6, [pc, #716]	; (0x2e2c)
    2b60:	4030      	ands	r0, r6
    2b62:	4031      	ands	r1, r6
    2b64:	3601      	adds	r6, #1
    2b66:	4330      	orrs	r0, r6
    2b68:	4331      	orrs	r1, r6
    2b6a:	4060      	eors	r0, r4
    2b6c:	4069      	eors	r1, r5
    2b6e:	1b00      	subs	r0, r0, r4
    2b70:	1b49      	subs	r1, r1, r5
    2b72:	1a9d      	subs	r5, r3, r2
    2b74:	1ad4      	subs	r4, r2, r3
    2b76:	d40d      	bmi.n	0x2b94
    2b78:	2c1e      	cmp	r4, #30
    2b7a:	da08      	bge.n	0x2b8e
    2b7c:	3520      	adds	r5, #32
    2b7e:	0013      	movs	r3, r2
    2b80:	000a      	movs	r2, r1
    2b82:	40aa      	lsls	r2, r5
    2b84:	4121      	asrs	r1, r4
    2b86:	e00b      	b.n	0x2ba0
    2b88:	2200      	movs	r2, #0
    2b8a:	0008      	movs	r0, r1
    2b8c:	e00a      	b.n	0x2ba4
    2b8e:	0013      	movs	r3, r2
    2b90:	2200      	movs	r2, #0
    2b92:	e007      	b.n	0x2ba4
    2b94:	2d1e      	cmp	r5, #30
    2b96:	daf7      	bge.n	0x2b88
    2b98:	3420      	adds	r4, #32
    2b9a:	0002      	movs	r2, r0
    2b9c:	40a2      	lsls	r2, r4
    2b9e:	4128      	asrs	r0, r5
    2ba0:	1840      	adds	r0, r0, r1
    2ba2:	d019      	beq.n	0x2bd8
    2ba4:	0fc1      	lsrs	r1, r0, #31
    2ba6:	d003      	beq.n	0x2bb0
    2ba8:	43c0      	mvns	r0, r0
    2baa:	4252      	negs	r2, r2
    2bac:	d100      	bne.n	0x2bb0
    2bae:	3001      	adds	r0, #1
    2bb0:	19b6      	adds	r6, r6, r6
    2bb2:	42b0      	cmp	r0, r6
    2bb4:	d204      	bcs.n	0x2bc0
    2bb6:	1892      	adds	r2, r2, r2
    2bb8:	4140      	adcs	r0, r0
    2bba:	3b01      	subs	r3, #1
    2bbc:	42b0      	cmp	r0, r6
    2bbe:	d3fa      	bcc.n	0x2bb6
    2bc0:	0840      	lsrs	r0, r0, #1
    2bc2:	d302      	bcc.n	0x2bca
    2bc4:	3001      	adds	r0, #1
    2bc6:	2a00      	cmp	r2, #0
    2bc8:	d009      	beq.n	0x2bde
    2bca:	2bfe      	cmp	r3, #254	; 0xfe
    2bcc:	d20a      	bcs.n	0x2be4
    2bce:	07c9      	lsls	r1, r1, #31
    2bd0:	4408      	add	r0, r1
    2bd2:	05db      	lsls	r3, r3, #23
    2bd4:	4418      	add	r0, r3
    2bd6:	bd70      	pop	{r4, r5, r6, pc}
    2bd8:	2a00      	cmp	r2, #0
    2bda:	d0fc      	beq.n	0x2bd6
    2bdc:	e7e2      	b.n	0x2ba4
    2bde:	0840      	lsrs	r0, r0, #1
    2be0:	0040      	lsls	r0, r0, #1
    2be2:	e7f2      	b.n	0x2bca
    2be4:	da01      	bge.n	0x2bea
    2be6:	07c8      	lsls	r0, r1, #31
    2be8:	bd70      	pop	{r4, r5, r6, pc}
    2bea:	0208      	lsls	r0, r1, #8
    2bec:	30ff      	adds	r0, #255	; 0xff
    2bee:	05c0      	lsls	r0, r0, #23
    2bf0:	bd70      	pop	{r4, r5, r6, pc}
    2bf2:	3a20      	subs	r2, #32
    2bf4:	1912      	adds	r2, r2, r4
    2bf6:	e7ac      	b.n	0x2b52
    2bf8:	0212      	lsls	r2, r2, #8
    2bfa:	4422      	add	r2, r4
    2bfc:	e7a9      	b.n	0x2b52
    2bfe:	3b20      	subs	r3, #32
    2c00:	195b      	adds	r3, r3, r5
    2c02:	e7ac      	b.n	0x2b5e
    2c04:	021b      	lsls	r3, r3, #8
    2c06:	442b      	add	r3, r5
    2c08:	e7a9      	b.n	0x2b5e
    2c0a:	46c0      	nop			; (mov r8, r8)
    2c0c:	b580      	push	{r7, lr}
    2c0e:	4602      	mov	r2, r0
    2c10:	404a      	eors	r2, r1
    2c12:	0fd2      	lsrs	r2, r2, #31
    2c14:	07d2      	lsls	r2, r2, #31
    2c16:	4696      	mov	lr, r2
    2c18:	0040      	lsls	r0, r0, #1
    2c1a:	0049      	lsls	r1, r1, #1
    2c1c:	0e02      	lsrs	r2, r0, #24
    2c1e:	d03d      	beq.n	0x2c9c
    2c20:	2aff      	cmp	r2, #255	; 0xff
    2c22:	d03c      	beq.n	0x2c9e
    2c24:	0e0b      	lsrs	r3, r1, #24
    2c26:	d03c      	beq.n	0x2ca2
    2c28:	2bff      	cmp	r3, #255	; 0xff
    2c2a:	d03b      	beq.n	0x2ca4
    2c2c:	18d7      	adds	r7, r2, r3
    2c2e:	3f80      	subs	r7, #128	; 0x80
    2c30:	0200      	lsls	r0, r0, #8
    2c32:	0209      	lsls	r1, r1, #8
    2c34:	0a40      	lsrs	r0, r0, #9
    2c36:	0a49      	lsrs	r1, r1, #9
    2c38:	1842      	adds	r2, r0, r1
    2c3a:	4694      	mov	ip, r2
    2c3c:	09c2      	lsrs	r2, r0, #7
    2c3e:	09cb      	lsrs	r3, r1, #7
    2c40:	435a      	muls	r2, r3
    2c42:	4348      	muls	r0, r1
    2c44:	0c92      	lsrs	r2, r2, #18
    2c46:	d302      	bcc.n	0x2c4e
    2c48:	2800      	cmp	r0, #0
    2c4a:	d400      	bmi.n	0x2c4e
    2c4c:	3201      	adds	r2, #1
    2c4e:	0243      	lsls	r3, r0, #9
    2c50:	0dc0      	lsrs	r0, r0, #23
    2c52:	0252      	lsls	r2, r2, #9
    2c54:	1880      	adds	r0, r0, r2
    2c56:	4460      	add	r0, ip
    2c58:	0dc1      	lsrs	r1, r0, #23
    2c5a:	d10e      	bne.n	0x2c7a
    2c5c:	2ffe      	cmp	r7, #254	; 0xfe
    2c5e:	d22b      	bcs.n	0x2cb8
    2c60:	005b      	lsls	r3, r3, #1
    2c62:	d301      	bcc.n	0x2c68
    2c64:	d005      	beq.n	0x2c72
    2c66:	3001      	adds	r0, #1
    2c68:	3701      	adds	r7, #1
    2c6a:	05ff      	lsls	r7, r7, #23
    2c6c:	4438      	add	r0, r7
    2c6e:	4470      	add	r0, lr
    2c70:	bd80      	pop	{r7, pc}
    2c72:	3001      	adds	r0, #1
    2c74:	0840      	lsrs	r0, r0, #1
    2c76:	0040      	lsls	r0, r0, #1
    2c78:	e7f6      	b.n	0x2c68
    2c7a:	3701      	adds	r7, #1
    2c7c:	2ffe      	cmp	r7, #254	; 0xfe
    2c7e:	d213      	bcs.n	0x2ca8
    2c80:	0840      	lsrs	r0, r0, #1
    2c82:	d302      	bcc.n	0x2c8a
    2c84:	3001      	adds	r0, #1
    2c86:	2b00      	cmp	r3, #0
    2c88:	d005      	beq.n	0x2c96
    2c8a:	19ff      	adds	r7, r7, r7
    2c8c:	3701      	adds	r7, #1
    2c8e:	05bf      	lsls	r7, r7, #22
    2c90:	4438      	add	r0, r7
    2c92:	4470      	add	r0, lr
    2c94:	bd80      	pop	{r7, pc}
    2c96:	0840      	lsrs	r0, r0, #1
    2c98:	0040      	lsls	r0, r0, #1
    2c9a:	e7f6      	b.n	0x2c8a
    2c9c:	3a10      	subs	r2, #16
    2c9e:	0212      	lsls	r2, r2, #8
    2ca0:	e7c0      	b.n	0x2c24
    2ca2:	3b10      	subs	r3, #16
    2ca4:	021b      	lsls	r3, r3, #8
    2ca6:	e7c1      	b.n	0x2c2c
    2ca8:	da12      	bge.n	0x2cd0
    2caa:	3701      	adds	r7, #1
    2cac:	d10e      	bne.n	0x2ccc
    2cae:	3002      	adds	r0, #2
    2cb0:	0dc0      	lsrs	r0, r0, #23
    2cb2:	2803      	cmp	r0, #3
    2cb4:	d10a      	bne.n	0x2ccc
    2cb6:	e005      	b.n	0x2cc4
    2cb8:	da0a      	bge.n	0x2cd0
    2cba:	3701      	adds	r7, #1
    2cbc:	d106      	bne.n	0x2ccc
    2cbe:	3001      	adds	r0, #1
    2cc0:	0dc0      	lsrs	r0, r0, #23
    2cc2:	d003      	beq.n	0x2ccc
    2cc4:	2001      	movs	r0, #1
    2cc6:	05c0      	lsls	r0, r0, #23
    2cc8:	4470      	add	r0, lr
    2cca:	bd80      	pop	{r7, pc}
    2ccc:	4670      	mov	r0, lr
    2cce:	bd80      	pop	{r7, pc}
    2cd0:	20ff      	movs	r0, #255	; 0xff
    2cd2:	05c0      	lsls	r0, r0, #23
    2cd4:	4470      	add	r0, lr
    2cd6:	bd80      	pop	{r7, pc}
    2cd8:	b570      	push	{r4, r5, r6, lr}
    2cda:	2401      	movs	r4, #1
    2cdc:	4266      	negs	r6, r4
    2cde:	05e4      	lsls	r4, r4, #23
    2ce0:	024a      	lsls	r2, r1, #9
    2ce2:	0a52      	lsrs	r2, r2, #9
    2ce4:	4322      	orrs	r2, r4
    2ce6:	09d3      	lsrs	r3, r2, #7
    2ce8:	25d0      	movs	r5, #208	; 0xd0
    2cea:	062d      	lsls	r5, r5, #24
    2cec:	662e      	str	r6, [r5, #96]	; 0x60
    2cee:	666b      	str	r3, [r5, #100]	; 0x64
    2cf0:	0dc6      	lsrs	r6, r0, #23
    2cf2:	b2f3      	uxtb	r3, r6
    2cf4:	0240      	lsls	r0, r0, #9
    2cf6:	0a40      	lsrs	r0, r0, #9
    2cf8:	4320      	orrs	r0, r4
    2cfa:	0dc9      	lsrs	r1, r1, #23
    2cfc:	404e      	eors	r6, r1
    2cfe:	0a36      	lsrs	r6, r6, #8
    2d00:	07f6      	lsls	r6, r6, #31
    2d02:	6f2d      	ldr	r5, [r5, #112]	; 0x70
    2d04:	b2c9      	uxtb	r1, r1
    2d06:	2900      	cmp	r1, #0
    2d08:	d030      	beq.n	0x2d6c
    2d0a:	29ff      	cmp	r1, #255	; 0xff
    2d0c:	d02c      	beq.n	0x2d68
    2d0e:	2b00      	cmp	r3, #0
    2d10:	d039      	beq.n	0x2d86
    2d12:	2bff      	cmp	r3, #255	; 0xff
    2d14:	d02a      	beq.n	0x2d6c
    2d16:	1a5b      	subs	r3, r3, r1
    2d18:	337d      	adds	r3, #125	; 0x7d
    2d1a:	0a01      	lsrs	r1, r0, #8
    2d1c:	4369      	muls	r1, r5
    2d1e:	0c09      	lsrs	r1, r1, #16
    2d20:	03c0      	lsls	r0, r0, #15
    2d22:	0014      	movs	r4, r2
    2d24:	434c      	muls	r4, r1
    2d26:	1b04      	subs	r4, r0, r4
    2d28:	12a4      	asrs	r4, r4, #10
    2d2a:	436c      	muls	r4, r5
    2d2c:	1424      	asrs	r4, r4, #16
    2d2e:	0349      	lsls	r1, r1, #13
    2d30:	1909      	adds	r1, r1, r4
    2d32:	0f0c      	lsrs	r4, r1, #28
    2d34:	d108      	bne.n	0x2d48
    2d36:	3105      	adds	r1, #5
    2d38:	090c      	lsrs	r4, r1, #4
    2d3a:	d30f      	bcc.n	0x2d5c
    2d3c:	08c9      	lsrs	r1, r1, #3
    2d3e:	0280      	lsls	r0, r0, #10
    2d40:	4351      	muls	r1, r2
    2d42:	1a40      	subs	r0, r0, r1
    2d44:	d40a      	bmi.n	0x2d5c
    2d46:	e008      	b.n	0x2d5a
    2d48:	3301      	adds	r3, #1
    2d4a:	3109      	adds	r1, #9
    2d4c:	094c      	lsrs	r4, r1, #5
    2d4e:	d305      	bcc.n	0x2d5c
    2d50:	0909      	lsrs	r1, r1, #4
    2d52:	0240      	lsls	r0, r0, #9
    2d54:	4351      	muls	r1, r2
    2d56:	1a40      	subs	r0, r0, r1
    2d58:	d400      	bmi.n	0x2d5c
    2d5a:	3401      	adds	r4, #1
    2d5c:	2bfe      	cmp	r3, #254	; 0xfe
    2d5e:	d209      	bcs.n	0x2d74
    2d60:	05d9      	lsls	r1, r3, #23
    2d62:	1860      	adds	r0, r4, r1
    2d64:	1980      	adds	r0, r0, r6
    2d66:	bd70      	pop	{r4, r5, r6, pc}
    2d68:	2bff      	cmp	r3, #255	; 0xff
    2d6a:	d10c      	bne.n	0x2d86
    2d6c:	20ff      	movs	r0, #255	; 0xff
    2d6e:	05c0      	lsls	r0, r0, #23
    2d70:	4330      	orrs	r0, r6
    2d72:	bd70      	pop	{r4, r5, r6, pc}
    2d74:	dafa      	bge.n	0x2d6c
    2d76:	1c59      	adds	r1, r3, #1
    2d78:	d105      	bne.n	0x2d86
    2d7a:	0e61      	lsrs	r1, r4, #25
    2d7c:	d303      	bcc.n	0x2d86
    2d7e:	2001      	movs	r0, #1
    2d80:	05c0      	lsls	r0, r0, #23
    2d82:	4330      	orrs	r0, r6
    2d84:	bd70      	pop	{r4, r5, r6, pc}
    2d86:	0030      	movs	r0, r6
    2d88:	bd70      	pop	{r4, r5, r6, pc}
    2d8a:	46c0      	nop			; (mov r8, r8)
    2d8c:	b410      	push	{r4}
    2d8e:	0041      	lsls	r1, r0, #1
    2d90:	d23a      	bcs.n	0x2e08
    2d92:	0209      	lsls	r1, r1, #8
    2d94:	0a49      	lsrs	r1, r1, #9
    2d96:	2201      	movs	r2, #1
    2d98:	05d2      	lsls	r2, r2, #23
    2d9a:	1889      	adds	r1, r1, r2
    2d9c:	0dc2      	lsrs	r2, r0, #23
    2d9e:	d03a      	beq.n	0x2e16
    2da0:	2aff      	cmp	r2, #255	; 0xff
    2da2:	d036      	beq.n	0x2e12
    2da4:	327d      	adds	r2, #125	; 0x7d
    2da6:	1052      	asrs	r2, r2, #1
    2da8:	d300      	bcc.n	0x2dac
    2daa:	0049      	lsls	r1, r1, #1
    2dac:	a41a      	add	r4, pc, #104	; (adr r4, 0x2e18)
    2dae:	0d4b      	lsrs	r3, r1, #21
    2db0:	5ce4      	ldrb	r4, [r4, r3]
    2db2:	09c8      	lsrs	r0, r1, #7
    2db4:	4360      	muls	r0, r4
    2db6:	4360      	muls	r0, r4
    2db8:	1300      	asrs	r0, r0, #12
    2dba:	4360      	muls	r0, r4
    2dbc:	1340      	asrs	r0, r0, #13
    2dbe:	0224      	lsls	r4, r4, #8
    2dc0:	1a24      	subs	r4, r4, r0
    2dc2:	34aa      	adds	r4, #170	; 0xaa
    2dc4:	0020      	movs	r0, r4
    2dc6:	4340      	muls	r0, r0
    2dc8:	0bc0      	lsrs	r0, r0, #15
    2dca:	0a0b      	lsrs	r3, r1, #8
    2dcc:	4358      	muls	r0, r3
    2dce:	1300      	asrs	r0, r0, #12
    2dd0:	4360      	muls	r0, r4
    2dd2:	1540      	asrs	r0, r0, #21
    2dd4:	1a24      	subs	r4, r4, r0
    2dd6:	4363      	muls	r3, r4
    2dd8:	0bdb      	lsrs	r3, r3, #15
    2dda:	0018      	movs	r0, r3
    2ddc:	4340      	muls	r0, r0
    2dde:	0249      	lsls	r1, r1, #9
    2de0:	1a08      	subs	r0, r1, r0
    2de2:	1140      	asrs	r0, r0, #5
    2de4:	4344      	muls	r4, r0
    2de6:	01db      	lsls	r3, r3, #7
    2de8:	13e0      	asrs	r0, r4, #15
    2dea:	3010      	adds	r0, #16
    2dec:	1180      	asrs	r0, r0, #6
    2dee:	4403      	add	r3, r0
    2df0:	d306      	bcc.n	0x2e00
    2df2:	461c      	mov	r4, r3
    2df4:	4164      	adcs	r4, r4
    2df6:	4364      	muls	r4, r4
    2df8:	0409      	lsls	r1, r1, #16
    2dfa:	1b09      	subs	r1, r1, r4
    2dfc:	d400      	bmi.n	0x2e00
    2dfe:	3301      	adds	r3, #1
    2e00:	05d2      	lsls	r2, r2, #23
    2e02:	18d0      	adds	r0, r2, r3
    2e04:	bc10      	pop	{r4}
    2e06:	4770      	bx	lr
    2e08:	0e09      	lsrs	r1, r1, #24
    2e0a:	d004      	beq.n	0x2e16
    2e0c:	17c0      	asrs	r0, r0, #31
    2e0e:	05c0      	lsls	r0, r0, #23
    2e10:	e7f8      	b.n	0x2e04
    2e12:	0dc0      	lsrs	r0, r0, #23
    2e14:	e7fb      	b.n	0x2e0e
    2e16:	0fc0      	lsrs	r0, r0, #31
    2e18:	07c0      	lsls	r0, r0, #31
    2e1a:	e7f3      	b.n	0x2e04
    2e1c:	daf1      	bge.n	0x2e02
    2e1e:	bbc9      	cbnz	r1, 0x2e94
    2e20:	a6b0      	add	r6, pc, #704	; (adr r6, 0x30e4)
    2e22:	979e      	str	r7, [sp, #632]	; 0x278
    2e24:	8b91      	ldrh	r1, [r2, #28]
    2e26:	8286      	strh	r6, [r0, #20]
    2e28:	0000      	movs	r0, r0
    2e2a:	8000      	strh	r0, [r0, #0]
    2e2c:	ffff 007f 	vshr.u32	q8, <illegal reg q15.5>, #1
    2e30:	b5f0      	push	{r4, r5, r6, r7, lr}
    2e32:	2401      	movs	r4, #1
    2e34:	07e4      	lsls	r4, r4, #31
    2e36:	4063      	eors	r3, r4
    2e38:	e001      	b.n	0x2e3e
    2e3a:	46c0      	nop			; (mov r8, r8)
    2e3c:	b5f0      	push	{r4, r5, r6, r7, lr}
    2e3e:	0d0c      	lsrs	r4, r1, #20
    2e40:	0fcf      	lsrs	r7, r1, #31
    2e42:	1e66      	subs	r6, r4, #1
    2e44:	0536      	lsls	r6, r6, #20
    2e46:	1b89      	subs	r1, r1, r6
    2e48:	0564      	lsls	r4, r4, #21
    2e4a:	d303      	bcc.n	0x2e54
    2e4c:	43c9      	mvns	r1, r1
    2e4e:	4240      	negs	r0, r0
    2e50:	d300      	bcc.n	0x2e54
    2e52:	3101      	adds	r1, #1
    2e54:	0d64      	lsrs	r4, r4, #21
    2e56:	d003      	beq.n	0x2e60
    2e58:	1c66      	adds	r6, r4, #1
    2e5a:	0af6      	lsrs	r6, r6, #11
    2e5c:	d007      	beq.n	0x2e6e
    2e5e:	1be4      	subs	r4, r4, r7
    2e60:	2000      	movs	r0, #0
    2e62:	007f      	lsls	r7, r7, #1
    2e64:	1c79      	adds	r1, r7, #1
    2e66:	0789      	lsls	r1, r1, #30
    2e68:	1289      	asrs	r1, r1, #10
    2e6a:	3c80      	subs	r4, #128	; 0x80
    2e6c:	0324      	lsls	r4, r4, #12
    2e6e:	0d1d      	lsrs	r5, r3, #20
    2e70:	0fdf      	lsrs	r7, r3, #31
    2e72:	1e6e      	subs	r6, r5, #1
    2e74:	0536      	lsls	r6, r6, #20
    2e76:	1b9b      	subs	r3, r3, r6
    2e78:	056d      	lsls	r5, r5, #21
    2e7a:	d303      	bcc.n	0x2e84
    2e7c:	43db      	mvns	r3, r3
    2e7e:	4252      	negs	r2, r2
    2e80:	d300      	bcc.n	0x2e84
    2e82:	3301      	adds	r3, #1
    2e84:	0d6d      	lsrs	r5, r5, #21
    2e86:	d003      	beq.n	0x2e90
    2e88:	1c6e      	adds	r6, r5, #1
    2e8a:	0af6      	lsrs	r6, r6, #11
    2e8c:	d007      	beq.n	0x2e9e
    2e8e:	1bed      	subs	r5, r5, r7
    2e90:	2200      	movs	r2, #0
    2e92:	007f      	lsls	r7, r7, #1
    2e94:	1c7b      	adds	r3, r7, #1
    2e96:	079b      	lsls	r3, r3, #30
    2e98:	129b      	asrs	r3, r3, #10
    2e9a:	3d80      	subs	r5, #128	; 0x80
    2e9c:	032d      	lsls	r5, r5, #12
    2e9e:	1b2f      	subs	r7, r5, r4
    2ea0:	1b66      	subs	r6, r4, r5
    2ea2:	d458      	bmi.n	0x2f56
    2ea4:	46a4      	mov	ip, r4
    2ea6:	2e20      	cmp	r6, #32
    2ea8:	da46      	bge.n	0x2f38
    2eaa:	3720      	adds	r7, #32
    2eac:	0014      	movs	r4, r2
    2eae:	40bc      	lsls	r4, r7
    2eb0:	001d      	movs	r5, r3
    2eb2:	40bd      	lsls	r5, r7
    2eb4:	40f2      	lsrs	r2, r6
    2eb6:	4133      	asrs	r3, r6
    2eb8:	432a      	orrs	r2, r5
    2eba:	1880      	adds	r0, r0, r2
    2ebc:	4159      	adcs	r1, r3
    2ebe:	0fcb      	lsrs	r3, r1, #31
    2ec0:	d005      	beq.n	0x2ece
    2ec2:	43c9      	mvns	r1, r1
    2ec4:	43c0      	mvns	r0, r0
    2ec6:	2200      	movs	r2, #0
    2ec8:	4264      	negs	r4, r4
    2eca:	4150      	adcs	r0, r2
    2ecc:	4151      	adcs	r1, r2
    2ece:	4662      	mov	r2, ip
    2ed0:	0d4d      	lsrs	r5, r1, #21
    2ed2:	d128      	bne.n	0x2f26
    2ed4:	0d0d      	lsrs	r5, r1, #20
    2ed6:	d107      	bne.n	0x2ee8
    2ed8:	2800      	cmp	r0, #0
    2eda:	d01f      	beq.n	0x2f1c
    2edc:	1924      	adds	r4, r4, r4
    2ede:	4140      	adcs	r0, r0
    2ee0:	4149      	adcs	r1, r1
    2ee2:	3a01      	subs	r2, #1
    2ee4:	0d0d      	lsrs	r5, r1, #20
    2ee6:	d0f9      	beq.n	0x2edc
    2ee8:	0064      	lsls	r4, r4, #1
    2eea:	d306      	bcc.n	0x2efa
    2eec:	3001      	adds	r0, #1
    2eee:	d300      	bcc.n	0x2ef2
    2ef0:	3101      	adds	r1, #1
    2ef2:	2c00      	cmp	r4, #0
    2ef4:	d101      	bne.n	0x2efa
    2ef6:	0840      	lsrs	r0, r0, #1
    2ef8:	0040      	lsls	r0, r0, #1
    2efa:	3a01      	subs	r2, #1
    2efc:	d40b      	bmi.n	0x2f16
    2efe:	1c94      	adds	r4, r2, #2
    2f00:	0ae4      	lsrs	r4, r4, #11
    2f02:	d104      	bne.n	0x2f0e
    2f04:	0512      	lsls	r2, r2, #20
    2f06:	4411      	add	r1, r2
    2f08:	07db      	lsls	r3, r3, #31
    2f0a:	4419      	add	r1, r3
    2f0c:	bdf0      	pop	{r4, r5, r6, r7, pc}
    2f0e:	07d9      	lsls	r1, r3, #31
    2f10:	4b20      	ldr	r3, [pc, #128]	; (0x2f94)
    2f12:	4319      	orrs	r1, r3
    2f14:	e000      	b.n	0x2f18
    2f16:	07d9      	lsls	r1, r3, #31
    2f18:	2000      	movs	r0, #0
    2f1a:	bdf0      	pop	{r4, r5, r6, r7, pc}
    2f1c:	2900      	cmp	r1, #0
    2f1e:	d1dd      	bne.n	0x2edc
    2f20:	2c00      	cmp	r4, #0
    2f22:	d1db      	bne.n	0x2edc
    2f24:	bdf0      	pop	{r4, r5, r6, r7, pc}
    2f26:	3201      	adds	r2, #1
    2f28:	07c6      	lsls	r6, r0, #31
    2f2a:	0840      	lsrs	r0, r0, #1
    2f2c:	07cd      	lsls	r5, r1, #31
    2f2e:	4328      	orrs	r0, r5
    2f30:	0849      	lsrs	r1, r1, #1
    2f32:	2e00      	cmp	r6, #0
    2f34:	d0e1      	beq.n	0x2efa
    2f36:	e7d9      	b.n	0x2eec
    2f38:	2e3c      	cmp	r6, #60	; 0x3c
    2f3a:	da29      	bge.n	0x2f90
    2f3c:	3e20      	subs	r6, #32
    2f3e:	3740      	adds	r7, #64	; 0x40
    2f40:	0014      	movs	r4, r2
    2f42:	40bc      	lsls	r4, r7
    2f44:	d000      	beq.n	0x2f48
    2f46:	2401      	movs	r4, #1
    2f48:	40f2      	lsrs	r2, r6
    2f4a:	4314      	orrs	r4, r2
    2f4c:	001a      	movs	r2, r3
    2f4e:	40bb      	lsls	r3, r7
    2f50:	431c      	orrs	r4, r3
    2f52:	17d3      	asrs	r3, r2, #31
    2f54:	e7ac      	b.n	0x2eb0
    2f56:	46ac      	mov	ip, r5
    2f58:	2f20      	cmp	r7, #32
    2f5a:	da08      	bge.n	0x2f6e
    2f5c:	3620      	adds	r6, #32
    2f5e:	0004      	movs	r4, r0
    2f60:	40b4      	lsls	r4, r6
    2f62:	000d      	movs	r5, r1
    2f64:	40b5      	lsls	r5, r6
    2f66:	40f8      	lsrs	r0, r7
    2f68:	4139      	asrs	r1, r7
    2f6a:	4328      	orrs	r0, r5
    2f6c:	e7a5      	b.n	0x2eba
    2f6e:	2f3c      	cmp	r7, #60	; 0x3c
    2f70:	da0c      	bge.n	0x2f8c
    2f72:	3f20      	subs	r7, #32
    2f74:	3640      	adds	r6, #64	; 0x40
    2f76:	0004      	movs	r4, r0
    2f78:	40b4      	lsls	r4, r6
    2f7a:	d000      	beq.n	0x2f7e
    2f7c:	2401      	movs	r4, #1
    2f7e:	40f8      	lsrs	r0, r7
    2f80:	4304      	orrs	r4, r0
    2f82:	0008      	movs	r0, r1
    2f84:	40b1      	lsls	r1, r6
    2f86:	430c      	orrs	r4, r1
    2f88:	17c1      	asrs	r1, r0, #31
    2f8a:	e7ea      	b.n	0x2f62
    2f8c:	0010      	movs	r0, r2
    2f8e:	0019      	movs	r1, r3
    2f90:	2400      	movs	r4, #0
    2f92:	e794      	b.n	0x2ebe
    2f94:	0000      	movs	r0, r0
    2f96:	7ff0      	ldrb	r0, [r6, #31]
    2f98:	b5f0      	push	{r4, r5, r6, r7, lr}
    2f9a:	0d0c      	lsrs	r4, r1, #20
    2f9c:	1e66      	subs	r6, r4, #1
    2f9e:	0536      	lsls	r6, r6, #20
    2fa0:	1b89      	subs	r1, r1, r6
    2fa2:	0ae6      	lsrs	r6, r4, #11
    2fa4:	0564      	lsls	r4, r4, #21
    2fa6:	0d64      	lsrs	r4, r4, #21
    2fa8:	d002      	beq.n	0x2fb0
    2faa:	1c65      	adds	r5, r4, #1
    2fac:	0aed      	lsrs	r5, r5, #11
    2fae:	d004      	beq.n	0x2fba
    2fb0:	2000      	movs	r0, #0
    2fb2:	2101      	movs	r1, #1
    2fb4:	0509      	lsls	r1, r1, #20
    2fb6:	3c80      	subs	r4, #128	; 0x80
    2fb8:	0324      	lsls	r4, r4, #12
    2fba:	46a4      	mov	ip, r4
    2fbc:	0d1c      	lsrs	r4, r3, #20
    2fbe:	1e67      	subs	r7, r4, #1
    2fc0:	053f      	lsls	r7, r7, #20
    2fc2:	1bdb      	subs	r3, r3, r7
    2fc4:	0ae7      	lsrs	r7, r4, #11
    2fc6:	0564      	lsls	r4, r4, #21
    2fc8:	0d64      	lsrs	r4, r4, #21
    2fca:	d002      	beq.n	0x2fd2
    2fcc:	1c65      	adds	r5, r4, #1
    2fce:	0aed      	lsrs	r5, r5, #11
    2fd0:	d004      	beq.n	0x2fdc
    2fd2:	2200      	movs	r2, #0
    2fd4:	2301      	movs	r3, #1
    2fd6:	051b      	lsls	r3, r3, #20
    2fd8:	3c80      	subs	r4, #128	; 0x80
    2fda:	0324      	lsls	r4, r4, #12
    2fdc:	4077      	eors	r7, r6
    2fde:	4464      	add	r4, ip
    2fe0:	b497      	push	{r0, r1, r2, r4, r7}
    2fe2:	b284      	uxth	r4, r0
    2fe4:	b296      	uxth	r6, r2
    2fe6:	4374      	muls	r4, r6
    2fe8:	0c07      	lsrs	r7, r0, #16
    2fea:	437e      	muls	r6, r7
    2fec:	0c15      	lsrs	r5, r2, #16
    2fee:	436f      	muls	r7, r5
    2ff0:	b280      	uxth	r0, r0
    2ff2:	4368      	muls	r0, r5
    2ff4:	1836      	adds	r6, r6, r0
    2ff6:	d302      	bcc.n	0x2ffe
    2ff8:	2001      	movs	r0, #1
    2ffa:	0400      	lsls	r0, r0, #16
    2ffc:	183f      	adds	r7, r7, r0
    2ffe:	0430      	lsls	r0, r6, #16
    3000:	0c35      	lsrs	r5, r6, #16
    3002:	1900      	adds	r0, r0, r4
    3004:	417d      	adcs	r5, r7
    3006:	4684      	mov	ip, r0
    3008:	b288      	uxth	r0, r1
    300a:	b29a      	uxth	r2, r3
    300c:	4350      	muls	r0, r2
    300e:	0c0c      	lsrs	r4, r1, #16
    3010:	4362      	muls	r2, r4
    3012:	0c1f      	lsrs	r7, r3, #16
    3014:	437c      	muls	r4, r7
    3016:	b28e      	uxth	r6, r1
    3018:	437e      	muls	r6, r7
    301a:	1992      	adds	r2, r2, r6
    301c:	d302      	bcc.n	0x3024
    301e:	2601      	movs	r6, #1
    3020:	0436      	lsls	r6, r6, #16
    3022:	19a4      	adds	r4, r4, r6
    3024:	0416      	lsls	r6, r2, #16
    3026:	0c17      	lsrs	r7, r2, #16
    3028:	1836      	adds	r6, r6, r0
    302a:	4167      	adcs	r7, r4
    302c:	bc01      	pop	{r0}
    302e:	b281      	uxth	r1, r0
    3030:	b29a      	uxth	r2, r3
    3032:	4351      	muls	r1, r2
    3034:	0c04      	lsrs	r4, r0, #16
    3036:	4362      	muls	r2, r4
    3038:	0c1b      	lsrs	r3, r3, #16
    303a:	435c      	muls	r4, r3
    303c:	b280      	uxth	r0, r0
    303e:	4358      	muls	r0, r3
    3040:	1812      	adds	r2, r2, r0
    3042:	d302      	bcc.n	0x304a
    3044:	2001      	movs	r0, #1
    3046:	0400      	lsls	r0, r0, #16
    3048:	1824      	adds	r4, r4, r0
    304a:	0410      	lsls	r0, r2, #16
    304c:	0c13      	lsrs	r3, r2, #16
    304e:	1840      	adds	r0, r0, r1
    3050:	4163      	adcs	r3, r4
    3052:	182d      	adds	r5, r5, r0
    3054:	415e      	adcs	r6, r3
    3056:	2000      	movs	r0, #0
    3058:	4147      	adcs	r7, r0
    305a:	bc06      	pop	{r1, r2}
    305c:	b288      	uxth	r0, r1
    305e:	b293      	uxth	r3, r2
    3060:	4358      	muls	r0, r3
    3062:	0c0c      	lsrs	r4, r1, #16
    3064:	4363      	muls	r3, r4
    3066:	0c12      	lsrs	r2, r2, #16
    3068:	4354      	muls	r4, r2
    306a:	b289      	uxth	r1, r1
    306c:	4351      	muls	r1, r2
    306e:	185b      	adds	r3, r3, r1
    3070:	d302      	bcc.n	0x3078
    3072:	2101      	movs	r1, #1
    3074:	0409      	lsls	r1, r1, #16
    3076:	1864      	adds	r4, r4, r1
    3078:	0419      	lsls	r1, r3, #16
    307a:	0c1a      	lsrs	r2, r3, #16
    307c:	1809      	adds	r1, r1, r0
    307e:	4162      	adcs	r2, r4
    3080:	186d      	adds	r5, r5, r1
    3082:	4156      	adcs	r6, r2
    3084:	2000      	movs	r0, #0
    3086:	4147      	adcs	r7, r0
    3088:	bc18      	pop	{r3, r4}
    308a:	02f9      	lsls	r1, r7, #11
    308c:	0d72      	lsrs	r2, r6, #21
    308e:	4311      	orrs	r1, r2
    3090:	02f0      	lsls	r0, r6, #11
    3092:	0d6a      	lsrs	r2, r5, #21
    3094:	4310      	orrs	r0, r2
    3096:	02ed      	lsls	r5, r5, #11
    3098:	0d0a      	lsrs	r2, r1, #20
    309a:	d103      	bne.n	0x30a4
    309c:	196d      	adds	r5, r5, r5
    309e:	4140      	adcs	r0, r0
    30a0:	4149      	adcs	r1, r1
    30a2:	3b01      	subs	r3, #1
    30a4:	4e12      	ldr	r6, [pc, #72]	; (0x30f0)
    30a6:	1b9b      	subs	r3, r3, r6
    30a8:	0076      	lsls	r6, r6, #1
    30aa:	42b3      	cmp	r3, r6
    30ac:	d20e      	bcs.n	0x30cc
    30ae:	006d      	lsls	r5, r5, #1
    30b0:	d307      	bcc.n	0x30c2
    30b2:	3001      	adds	r0, #1
    30b4:	2600      	movs	r6, #0
    30b6:	4171      	adcs	r1, r6
    30b8:	4666      	mov	r6, ip
    30ba:	4335      	orrs	r5, r6
    30bc:	d101      	bne.n	0x30c2
    30be:	0840      	lsrs	r0, r0, #1
    30c0:	0040      	lsls	r0, r0, #1
    30c2:	051b      	lsls	r3, r3, #20
    30c4:	18c9      	adds	r1, r1, r3
    30c6:	07e4      	lsls	r4, r4, #31
    30c8:	4421      	add	r1, r4
    30ca:	bdf0      	pop	{r4, r5, r6, r7, pc}
    30cc:	da0b      	bge.n	0x30e6
    30ce:	3301      	adds	r3, #1
    30d0:	d106      	bne.n	0x30e0
    30d2:	3001      	adds	r0, #1
    30d4:	d104      	bne.n	0x30e0
    30d6:	3101      	adds	r1, #1
    30d8:	0d4f      	lsrs	r7, r1, #21
    30da:	d001      	beq.n	0x30e0
    30dc:	0849      	lsrs	r1, r1, #1
    30de:	e7f2      	b.n	0x30c6
    30e0:	07e1      	lsls	r1, r4, #31
    30e2:	2000      	movs	r0, #0
    30e4:	bdf0      	pop	{r4, r5, r6, r7, pc}
    30e6:	3601      	adds	r6, #1
    30e8:	0531      	lsls	r1, r6, #20
    30ea:	2000      	movs	r0, #0
    30ec:	e7eb      	b.n	0x30c6
    30ee:	0000      	movs	r0, r0
    30f0:	03ff      	lsls	r7, r7, #15
    30f2:	0000      	movs	r0, r0
    30f4:	b5f0      	push	{r4, r5, r6, r7, lr}
    30f6:	0d1c      	lsrs	r4, r3, #20
    30f8:	1e67      	subs	r7, r4, #1
    30fa:	053f      	lsls	r7, r7, #20
    30fc:	1bdb      	subs	r3, r3, r7
    30fe:	0ae7      	lsrs	r7, r4, #11
    3100:	0564      	lsls	r4, r4, #21
    3102:	0d64      	lsrs	r4, r4, #21
    3104:	d002      	beq.n	0x310c
    3106:	1c66      	adds	r6, r4, #1
    3108:	0af6      	lsrs	r6, r6, #11
    310a:	d004      	beq.n	0x3116
    310c:	2200      	movs	r2, #0
    310e:	2301      	movs	r3, #1
    3110:	051b      	lsls	r3, r3, #20
    3112:	3c80      	subs	r4, #128	; 0x80
    3114:	0324      	lsls	r4, r4, #12
    3116:	25d0      	movs	r5, #208	; 0xd0
    3118:	062d      	lsls	r5, r5, #24
    311a:	2600      	movs	r6, #0
    311c:	43f6      	mvns	r6, r6
    311e:	662e      	str	r6, [r5, #96]	; 0x60
    3120:	091e      	lsrs	r6, r3, #4
    3122:	666e      	str	r6, [r5, #100]	; 0x64
    3124:	0fce      	lsrs	r6, r1, #31
    3126:	19f6      	adds	r6, r6, r7
    3128:	46b4      	mov	ip, r6
    312a:	0049      	lsls	r1, r1, #1
    312c:	0d4f      	lsrs	r7, r1, #21
    312e:	d002      	beq.n	0x3136
    3130:	1c7e      	adds	r6, r7, #1
    3132:	0af6      	lsrs	r6, r6, #11
    3134:	d003      	beq.n	0x313e
    3136:	2000      	movs	r0, #0
    3138:	2100      	movs	r1, #0
    313a:	3f40      	subs	r7, #64	; 0x40
    313c:	033f      	lsls	r7, r7, #12
    313e:	1b3e      	subs	r6, r7, r4
    3140:	00b6      	lsls	r6, r6, #2
    3142:	44b4      	add	ip, r6
    3144:	3f01      	subs	r7, #1
    3146:	057f      	lsls	r7, r7, #21
    3148:	1bc9      	subs	r1, r1, r7
    314a:	0849      	lsrs	r1, r1, #1
    314c:	6f2e      	ldr	r6, [r5, #112]	; 0x70
    314e:	3601      	adds	r6, #1
    3150:	0876      	lsrs	r6, r6, #1
    3152:	029c      	lsls	r4, r3, #10
    3154:	0d95      	lsrs	r5, r2, #22
    3156:	4325      	orrs	r5, r4
    3158:	4375      	muls	r5, r6
    315a:	13ed      	asrs	r5, r5, #15
    315c:	4375      	muls	r5, r6
    315e:	13ad      	asrs	r5, r5, #14
    3160:	3501      	adds	r5, #1
    3162:	106d      	asrs	r5, r5, #1
    3164:	03f6      	lsls	r6, r6, #15
    3166:	1b76      	subs	r6, r6, r5
    3168:	b40c      	push	{r2, r3}
    316a:	02cc      	lsls	r4, r1, #11
    316c:	0d45      	lsrs	r5, r0, #21
    316e:	432c      	orrs	r4, r5
    3170:	b2a2      	uxth	r2, r4
    3172:	b2b3      	uxth	r3, r6
    3174:	435a      	muls	r2, r3
    3176:	0c27      	lsrs	r7, r4, #16
    3178:	437b      	muls	r3, r7
    317a:	0c35      	lsrs	r5, r6, #16
    317c:	436f      	muls	r7, r5
    317e:	b2a4      	uxth	r4, r4
    3180:	436c      	muls	r4, r5
    3182:	191b      	adds	r3, r3, r4
    3184:	d302      	bcc.n	0x318c
    3186:	2401      	movs	r4, #1
    3188:	0424      	lsls	r4, r4, #16
    318a:	193f      	adds	r7, r7, r4
    318c:	041c      	lsls	r4, r3, #16
    318e:	0c1d      	lsrs	r5, r3, #16
    3190:	18a4      	adds	r4, r4, r2
    3192:	417d      	adcs	r5, r7
    3194:	1924      	adds	r4, r4, r4
    3196:	416d      	adcs	r5, r5
    3198:	9a00      	ldr	r2, [sp, #0]
    319a:	b291      	uxth	r1, r2
    319c:	b2ac      	uxth	r4, r5
    319e:	4361      	muls	r1, r4
    31a0:	0c17      	lsrs	r7, r2, #16
    31a2:	437c      	muls	r4, r7
    31a4:	0c2b      	lsrs	r3, r5, #16
    31a6:	435f      	muls	r7, r3
    31a8:	b292      	uxth	r2, r2
    31aa:	435a      	muls	r2, r3
    31ac:	18a4      	adds	r4, r4, r2
    31ae:	d302      	bcc.n	0x31b6
    31b0:	2201      	movs	r2, #1
    31b2:	0412      	lsls	r2, r2, #16
    31b4:	18bf      	adds	r7, r7, r2
    31b6:	0422      	lsls	r2, r4, #16
    31b8:	0c23      	lsrs	r3, r4, #16
    31ba:	1852      	adds	r2, r2, r1
    31bc:	417b      	adcs	r3, r7
    31be:	9c01      	ldr	r4, [sp, #4]
    31c0:	436c      	muls	r4, r5
    31c2:	191b      	adds	r3, r3, r4
    31c4:	0e52      	lsrs	r2, r2, #25
    31c6:	01d9      	lsls	r1, r3, #7
    31c8:	430a      	orrs	r2, r1
    31ca:	0144      	lsls	r4, r0, #5
    31cc:	1aa0      	subs	r0, r4, r2
    31ce:	b281      	uxth	r1, r0
    31d0:	b2b2      	uxth	r2, r6
    31d2:	4351      	muls	r1, r2
    31d4:	1403      	asrs	r3, r0, #16
    31d6:	435a      	muls	r2, r3
    31d8:	0c36      	lsrs	r6, r6, #16
    31da:	4373      	muls	r3, r6
    31dc:	b287      	uxth	r7, r0
    31de:	4377      	muls	r7, r6
    31e0:	17d6      	asrs	r6, r2, #31
    31e2:	19d2      	adds	r2, r2, r7
    31e4:	2700      	movs	r7, #0
    31e6:	417e      	adcs	r6, r7
    31e8:	0436      	lsls	r6, r6, #16
    31ea:	199b      	adds	r3, r3, r6
    31ec:	0417      	lsls	r7, r2, #16
    31ee:	0c16      	lsrs	r6, r2, #16
    31f0:	187f      	adds	r7, r7, r1
    31f2:	415e      	adcs	r6, r3
    31f4:	1673      	asrs	r3, r6, #25
    31f6:	18ed      	adds	r5, r5, r3
    31f8:	01f3      	lsls	r3, r6, #7
    31fa:	2600      	movs	r6, #0
    31fc:	3380      	adds	r3, #128	; 0x80
    31fe:	4175      	adcs	r5, r6
    3200:	0fa9      	lsrs	r1, r5, #30
    3202:	d106      	bne.n	0x3212
    3204:	0064      	lsls	r4, r4, #1
    3206:	0a69      	lsrs	r1, r5, #9
    3208:	05e8      	lsls	r0, r5, #23
    320a:	0a5b      	lsrs	r3, r3, #9
    320c:	4318      	orrs	r0, r3
    320e:	d209      	bcs.n	0x3224
    3210:	e02f      	b.n	0x3272
    3212:	2204      	movs	r2, #4
    3214:	4494      	add	ip, r2
    3216:	3380      	adds	r3, #128	; 0x80
    3218:	4175      	adcs	r5, r6
    321a:	0aa9      	lsrs	r1, r5, #10
    321c:	05a8      	lsls	r0, r5, #22
    321e:	0a9b      	lsrs	r3, r3, #10
    3220:	4318      	orrs	r0, r3
    3222:	d326      	bcc.n	0x3272
    3224:	4140      	adcs	r0, r0
    3226:	4149      	adcs	r1, r1
    3228:	0424      	lsls	r4, r4, #16
    322a:	9a00      	ldr	r2, [sp, #0]
    322c:	9b01      	ldr	r3, [sp, #4]
    322e:	000d      	movs	r5, r1
    3230:	4355      	muls	r5, r2
    3232:	1b64      	subs	r4, r4, r5
    3234:	4343      	muls	r3, r0
    3236:	1ae4      	subs	r4, r4, r3
    3238:	b295      	uxth	r5, r2
    323a:	b286      	uxth	r6, r0
    323c:	4375      	muls	r5, r6
    323e:	0c17      	lsrs	r7, r2, #16
    3240:	437e      	muls	r6, r7
    3242:	0c03      	lsrs	r3, r0, #16
    3244:	435f      	muls	r7, r3
    3246:	b292      	uxth	r2, r2
    3248:	435a      	muls	r2, r3
    324a:	18b6      	adds	r6, r6, r2
    324c:	d302      	bcc.n	0x3254
    324e:	2201      	movs	r2, #1
    3250:	0412      	lsls	r2, r2, #16
    3252:	18bf      	adds	r7, r7, r2
    3254:	0432      	lsls	r2, r6, #16
    3256:	0c33      	lsrs	r3, r6, #16
    3258:	1952      	adds	r2, r2, r5
    325a:	417b      	adcs	r3, r7
    325c:	4252      	negs	r2, r2
    325e:	419c      	sbcs	r4, r3
    3260:	2c00      	cmp	r4, #0
    3262:	d402      	bmi.n	0x326a
    3264:	2200      	movs	r2, #0
    3266:	3001      	adds	r0, #1
    3268:	4151      	adcs	r1, r2
    326a:	0840      	lsrs	r0, r0, #1
    326c:	07ca      	lsls	r2, r1, #31
    326e:	4310      	orrs	r0, r2
    3270:	0849      	lsrs	r1, r1, #1
    3272:	b002      	add	sp, #8
    3274:	4662      	mov	r2, ip
    3276:	07d7      	lsls	r7, r2, #31
    3278:	1092      	asrs	r2, r2, #2
    327a:	4b59      	ldr	r3, [pc, #356]	; (0x33e0)
    327c:	18d2      	adds	r2, r2, r3
    327e:	4b59      	ldr	r3, [pc, #356]	; (0x33e4)
    3280:	429a      	cmp	r2, r3
    3282:	d203      	bcs.n	0x328c
    3284:	0512      	lsls	r2, r2, #20
    3286:	1889      	adds	r1, r1, r2
    3288:	19c9      	adds	r1, r1, r7
    328a:	bdf0      	pop	{r4, r5, r6, r7, pc}
    328c:	2000      	movs	r0, #0
    328e:	2a00      	cmp	r2, #0
    3290:	dc01      	bgt.n	0x3296
    3292:	0039      	movs	r1, r7
    3294:	bdf0      	pop	{r4, r5, r6, r7, pc}
    3296:	3301      	adds	r3, #1
    3298:	0519      	lsls	r1, r3, #20
    329a:	e7f5      	b.n	0x3288
    329c:	da07      	bge.n	0x32ae
    329e:	2100      	movs	r1, #0
    32a0:	e007      	b.n	0x32b2
    32a2:	0fc9      	lsrs	r1, r1, #31
    32a4:	07c9      	lsls	r1, r1, #31
    32a6:	0d52      	lsrs	r2, r2, #21
    32a8:	d003      	beq.n	0x32b2
    32aa:	12c9      	asrs	r1, r1, #11
    32ac:	e001      	b.n	0x32b2
    32ae:	494e      	ldr	r1, [pc, #312]	; (0x33e8)
    32b0:	0509      	lsls	r1, r1, #20
    32b2:	2000      	movs	r0, #0
    32b4:	4770      	bx	lr
    32b6:	46c0      	nop			; (mov r8, r8)
    32b8:	004a      	lsls	r2, r1, #1
    32ba:	d2f2      	bcs.n	0x32a2
    32bc:	0d52      	lsrs	r2, r2, #21
    32be:	3a01      	subs	r2, #1
    32c0:	4b48      	ldr	r3, [pc, #288]	; (0x33e4)
    32c2:	429a      	cmp	r2, r3
    32c4:	d2ea      	bcs.n	0x329c
    32c6:	b5f0      	push	{r4, r5, r6, r7, lr}
    32c8:	0514      	lsls	r4, r2, #20
    32ca:	1b09      	subs	r1, r1, r4
    32cc:	0852      	lsrs	r2, r2, #1
    32ce:	d301      	bcc.n	0x32d4
    32d0:	1800      	adds	r0, r0, r0
    32d2:	4149      	adcs	r1, r1
    32d4:	089b      	lsrs	r3, r3, #2
    32d6:	18d2      	adds	r2, r2, r3
    32d8:	0512      	lsls	r2, r2, #20
    32da:	4694      	mov	ip, r2
    32dc:	a441      	add	r4, pc, #260	; (adr r4, 0x33e4)
    32de:	0c4a      	lsrs	r2, r1, #17
    32e0:	5ca2      	ldrb	r2, [r4, r2]
    32e2:	090b      	lsrs	r3, r1, #4
    32e4:	4353      	muls	r3, r2
    32e6:	4353      	muls	r3, r2
    32e8:	131b      	asrs	r3, r3, #12
    32ea:	4353      	muls	r3, r2
    32ec:	135b      	asrs	r3, r3, #13
    32ee:	0212      	lsls	r2, r2, #8
    32f0:	1ad2      	subs	r2, r2, r3
    32f2:	0013      	movs	r3, r2
    32f4:	435b      	muls	r3, r3
    32f6:	0b5b      	lsrs	r3, r3, #13
    32f8:	084c      	lsrs	r4, r1, #1
    32fa:	4363      	muls	r3, r4
    32fc:	13db      	asrs	r3, r3, #15
    32fe:	4353      	muls	r3, r2
    3300:	15db      	asrs	r3, r3, #23
    3302:	3301      	adds	r3, #1
    3304:	105b      	asrs	r3, r3, #1
    3306:	1ad2      	subs	r2, r2, r3
    3308:	0c13      	lsrs	r3, r2, #16
    330a:	1ad2      	subs	r2, r2, r3
    330c:	0013      	movs	r3, r2
    330e:	435b      	muls	r3, r3
    3310:	0289      	lsls	r1, r1, #10
    3312:	0d84      	lsrs	r4, r0, #22
    3314:	4321      	orrs	r1, r4
    3316:	b28d      	uxth	r5, r1
    3318:	b29e      	uxth	r6, r3
    331a:	4375      	muls	r5, r6
    331c:	0c0f      	lsrs	r7, r1, #16
    331e:	437e      	muls	r6, r7
    3320:	0c1b      	lsrs	r3, r3, #16
    3322:	435f      	muls	r7, r3
    3324:	b28c      	uxth	r4, r1
    3326:	435c      	muls	r4, r3
    3328:	1936      	adds	r6, r6, r4
    332a:	d302      	bcc.n	0x3332
    332c:	2401      	movs	r4, #1
    332e:	0424      	lsls	r4, r4, #16
    3330:	193f      	adds	r7, r7, r4
    3332:	0434      	lsls	r4, r6, #16
    3334:	0c33      	lsrs	r3, r6, #16
    3336:	1964      	adds	r4, r4, r5
    3338:	417b      	adcs	r3, r7
    333a:	019d      	lsls	r5, r3, #6
    333c:	0ea4      	lsrs	r4, r4, #26
    333e:	432c      	orrs	r4, r5
    3340:	3420      	adds	r4, #32
    3342:	b2a5      	uxth	r5, r4
    3344:	4355      	muls	r5, r2
    3346:	1424      	asrs	r4, r4, #16
    3348:	4354      	muls	r4, r2
    334a:	0c2d      	lsrs	r5, r5, #16
    334c:	1964      	adds	r4, r4, r5
    334e:	11a4      	asrs	r4, r4, #6
    3350:	03d2      	lsls	r2, r2, #15
    3352:	1b12      	subs	r2, r2, r4
    3354:	b295      	uxth	r5, r2
    3356:	b28e      	uxth	r6, r1
    3358:	4375      	muls	r5, r6
    335a:	0c17      	lsrs	r7, r2, #16
    335c:	437e      	muls	r6, r7
    335e:	0c0c      	lsrs	r4, r1, #16
    3360:	4367      	muls	r7, r4
    3362:	b293      	uxth	r3, r2
    3364:	4363      	muls	r3, r4
    3366:	18f6      	adds	r6, r6, r3
    3368:	d302      	bcc.n	0x3370
    336a:	2301      	movs	r3, #1
    336c:	041b      	lsls	r3, r3, #16
    336e:	18ff      	adds	r7, r7, r3
    3370:	0433      	lsls	r3, r6, #16
    3372:	0c34      	lsrs	r4, r6, #16
    3374:	195b      	adds	r3, r3, r5
    3376:	417c      	adcs	r4, r7
    3378:	18db      	adds	r3, r3, r3
    337a:	4164      	adcs	r4, r4
    337c:	18db      	adds	r3, r3, r3
    337e:	2300      	movs	r3, #0
    3380:	4163      	adcs	r3, r4
    3382:	b29e      	uxth	r6, r3
    3384:	4376      	muls	r6, r6
    3386:	b29d      	uxth	r5, r3
    3388:	0c1f      	lsrs	r7, r3, #16
    338a:	437d      	muls	r5, r7
    338c:	437f      	muls	r7, r7
    338e:	046c      	lsls	r4, r5, #17
    3390:	0bed      	lsrs	r5, r5, #15
    3392:	19a4      	adds	r4, r4, r6
    3394:	417d      	adcs	r5, r7
    3396:	0206      	lsls	r6, r0, #8
    3398:	088f      	lsrs	r7, r1, #2
    339a:	1b36      	subs	r6, r6, r4
    339c:	41af      	sbcs	r7, r5
    339e:	077d      	lsls	r5, r7, #29
    33a0:	08f6      	lsrs	r6, r6, #3
    33a2:	416e      	adcs	r6, r5
    33a4:	b2b4      	uxth	r4, r6
    33a6:	b295      	uxth	r5, r2
    33a8:	436c      	muls	r4, r5
    33aa:	1437      	asrs	r7, r6, #16
    33ac:	437d      	muls	r5, r7
    33ae:	0c12      	lsrs	r2, r2, #16
    33b0:	4357      	muls	r7, r2
    33b2:	b2b6      	uxth	r6, r6
    33b4:	4356      	muls	r6, r2
    33b6:	17ea      	asrs	r2, r5, #31
    33b8:	19ad      	adds	r5, r5, r6
    33ba:	2600      	movs	r6, #0
    33bc:	4172      	adcs	r2, r6
    33be:	0412      	lsls	r2, r2, #16
    33c0:	18bf      	adds	r7, r7, r2
    33c2:	042e      	lsls	r6, r5, #16
    33c4:	0c2a      	lsrs	r2, r5, #16
    33c6:	1936      	adds	r6, r6, r4
    33c8:	417a      	adcs	r2, r7
    33ca:	3208      	adds	r2, #8
    33cc:	1152      	asrs	r2, r2, #5
    33ce:	d219      	bcs.n	0x3404
    33d0:	0a9d      	lsrs	r5, r3, #10
    33d2:	059c      	lsls	r4, r3, #22
    33d4:	17d1      	asrs	r1, r2, #31
    33d6:	1910      	adds	r0, r2, r4
    33d8:	4169      	adcs	r1, r5
    33da:	4461      	add	r1, ip
    33dc:	bdf0      	pop	{r4, r5, r6, r7, pc}
    33de:	0000      	movs	r0, r0
    33e0:	03fd      	lsls	r5, r7, #15
    33e2:	0000      	movs	r0, r0
    33e4:	07fe      	lsls	r6, r7, #31
    33e6:	0000      	movs	r0, r0
    33e8:	07ff      	lsls	r7, r7, #31
    33ea:	0000      	movs	r0, r0
    33ec:	ebf8 d6df 			; <UNDEFINED> instruction: 0xebf8d6df
    33f0:	c5cd      	stmia	r5!, {r0, r2, r3, r6, r7}
    33f2:	b8be      			; <UNDEFINED> instruction: 0xb8be
    33f4:	adb2      	add	r5, sp, #712	; 0x2c8
    33f6:	a4a8      	add	r4, pc, #672	; (adr r4, 0x3698)
    33f8:	9ca0      	ldr	r4, [sp, #640]	; 0x280
    33fa:	9599      	str	r5, [sp, #612]	; 0x264
    33fc:	8f92      	ldrh	r2, [r2, #60]	; 0x3c
    33fe:	8a8d      	ldrh	r5, [r1, #20]
    3400:	8588      	strh	r0, [r1, #44]	; 0x2c
    3402:	8183      	strh	r3, [r0, #12]
    3404:	4152      	adcs	r2, r2
    3406:	0a5d      	lsrs	r5, r3, #9
    3408:	05dc      	lsls	r4, r3, #23
    340a:	17d1      	asrs	r1, r2, #31
    340c:	1914      	adds	r4, r2, r4
    340e:	414d      	adcs	r5, r1
    3410:	002b      	movs	r3, r5
    3412:	4363      	muls	r3, r4
    3414:	b2a6      	uxth	r6, r4
    3416:	4376      	muls	r6, r6
    3418:	b2a2      	uxth	r2, r4
    341a:	0c27      	lsrs	r7, r4, #16
    341c:	437a      	muls	r2, r7
    341e:	437f      	muls	r7, r7
    3420:	0451      	lsls	r1, r2, #17
    3422:	0bd2      	lsrs	r2, r2, #15
    3424:	1989      	adds	r1, r1, r6
    3426:	417a      	adcs	r2, r7
    3428:	18d2      	adds	r2, r2, r3
    342a:	18d2      	adds	r2, r2, r3
    342c:	0580      	lsls	r0, r0, #22
    342e:	4249      	negs	r1, r1
    3430:	4190      	sbcs	r0, r2
    3432:	d402      	bmi.n	0x343a
    3434:	2300      	movs	r3, #0
    3436:	3401      	adds	r4, #1
    3438:	415d      	adcs	r5, r3
    343a:	0860      	lsrs	r0, r4, #1
    343c:	0869      	lsrs	r1, r5, #1
    343e:	07ed      	lsls	r5, r5, #31
    3440:	4328      	orrs	r0, r5
    3442:	4461      	add	r1, ip
    3444:	bdf0      	pop	{r4, r5, r6, r7, pc}
    3446:	b5d0      	push	{r4, r6, r7, lr}
    3448:	e011      	b.n	0x346e
    344a:	b5d0      	push	{r4, r6, r7, lr}
    344c:	4fb3      	ldr	r7, [pc, #716]	; (0x371c)
    344e:	004c      	lsls	r4, r1, #1
    3450:	0d64      	lsrs	r4, r4, #21
    3452:	d001      	beq.n	0x3458
    3454:	42bc      	cmp	r4, r7
    3456:	d102      	bne.n	0x345e
    3458:	2000      	movs	r0, #0
    345a:	0d09      	lsrs	r1, r1, #20
    345c:	0509      	lsls	r1, r1, #20
    345e:	005c      	lsls	r4, r3, #1
    3460:	0d64      	lsrs	r4, r4, #21
    3462:	d001      	beq.n	0x3468
    3464:	42bc      	cmp	r4, r7
    3466:	d102      	bne.n	0x346e
    3468:	2200      	movs	r2, #0
    346a:	0d1b      	lsrs	r3, r3, #20
    346c:	051b      	lsls	r3, r3, #20
    346e:	2601      	movs	r6, #1
    3470:	404b      	eors	r3, r1
    3472:	d40c      	bmi.n	0x348e
    3474:	404b      	eors	r3, r1
    3476:	d500      	bpl.n	0x347a
    3478:	4276      	negs	r6, r6
    347a:	4299      	cmp	r1, r3
    347c:	d103      	bne.n	0x3486
    347e:	4290      	cmp	r0, r2
    3480:	d803      	bhi.n	0x348a
    3482:	d301      	bcc.n	0x3488
    3484:	2600      	movs	r6, #0
    3486:	dc00      	bgt.n	0x348a
    3488:	4276      	negs	r6, r6
    348a:	1e30      	subs	r0, r6, #0
    348c:	bdd0      	pop	{r4, r6, r7, pc}
    348e:	430b      	orrs	r3, r1
    3490:	18db      	adds	r3, r3, r3
    3492:	4303      	orrs	r3, r0
    3494:	4313      	orrs	r3, r2
    3496:	d0f5      	beq.n	0x3484
    3498:	2900      	cmp	r1, #0
    349a:	daf6      	bge.n	0x348a
    349c:	e7f4      	b.n	0x3488
    349e:	4644      	mov	r4, r8
    34a0:	464d      	mov	r5, r9
    34a2:	4656      	mov	r6, sl
    34a4:	465f      	mov	r7, fp
    34a6:	b4f0      	push	{r4, r5, r6, r7}
    34a8:	4770      	bx	lr
    34aa:	bcf0      	pop	{r4, r5, r6, r7}
    34ac:	46a0      	mov	r8, r4
    34ae:	46a9      	mov	r9, r5
    34b0:	46b2      	mov	sl, r6
    34b2:	46bb      	mov	fp, r7
    34b4:	4770      	bx	lr
    34b6:	4662      	mov	r2, ip
    34b8:	ca18      	ldmia	r2!, {r3, r4}
    34ba:	4694      	mov	ip, r2
    34bc:	465a      	mov	r2, fp
    34be:	2a00      	cmp	r2, #0
    34c0:	db20      	blt.n	0x3504
    34c2:	e004      	b.n	0x34ce
    34c4:	4662      	mov	r2, ip
    34c6:	ca18      	ldmia	r2!, {r3, r4}
    34c8:	4694      	mov	ip, r2
    34ca:	2900      	cmp	r1, #0
    34cc:	da1a      	bge.n	0x3504
    34ce:	18c0      	adds	r0, r0, r3
    34d0:	4161      	adcs	r1, r4
    34d2:	465b      	mov	r3, fp
    34d4:	413b      	asrs	r3, r7
    34d6:	465c      	mov	r4, fp
    34d8:	40b4      	lsls	r4, r6
    34da:	4652      	mov	r2, sl
    34dc:	40fa      	lsrs	r2, r7
    34de:	4322      	orrs	r2, r4
    34e0:	4644      	mov	r4, r8
    34e2:	464d      	mov	r5, r9
    34e4:	4162      	adcs	r2, r4
    34e6:	416b      	adcs	r3, r5
    34e8:	4690      	mov	r8, r2
    34ea:	4699      	mov	r9, r3
    34ec:	462b      	mov	r3, r5
    34ee:	40b3      	lsls	r3, r6
    34f0:	413d      	asrs	r5, r7
    34f2:	40fc      	lsrs	r4, r7
    34f4:	431c      	orrs	r4, r3
    34f6:	4652      	mov	r2, sl
    34f8:	465b      	mov	r3, fp
    34fa:	41a2      	sbcs	r2, r4
    34fc:	41ab      	sbcs	r3, r5
    34fe:	4692      	mov	sl, r2
    3500:	469b      	mov	fp, r3
    3502:	4770      	bx	lr
    3504:	1ac0      	subs	r0, r0, r3
    3506:	41a1      	sbcs	r1, r4
    3508:	464b      	mov	r3, r9
    350a:	413b      	asrs	r3, r7
    350c:	464c      	mov	r4, r9
    350e:	40b4      	lsls	r4, r6
    3510:	4642      	mov	r2, r8
    3512:	40fa      	lsrs	r2, r7
    3514:	4322      	orrs	r2, r4
    3516:	4654      	mov	r4, sl
    3518:	465d      	mov	r5, fp
    351a:	4162      	adcs	r2, r4
    351c:	416b      	adcs	r3, r5
    351e:	4692      	mov	sl, r2
    3520:	469b      	mov	fp, r3
    3522:	462b      	mov	r3, r5
    3524:	40b3      	lsls	r3, r6
    3526:	413d      	asrs	r5, r7
    3528:	40fc      	lsrs	r4, r7
    352a:	431c      	orrs	r4, r3
    352c:	4642      	mov	r2, r8
    352e:	464b      	mov	r3, r9
    3530:	41a2      	sbcs	r2, r4
    3532:	41ab      	sbcs	r3, r5
    3534:	4690      	mov	r8, r2
    3536:	4699      	mov	r9, r3
    3538:	4770      	bx	lr
    353a:	2000      	movs	r0, #0
    353c:	2100      	movs	r1, #0
    353e:	4770      	bx	lr
    3540:	2200      	movs	r2, #0
    3542:	b500      	push	{lr}
    3544:	3220      	adds	r2, #32
    3546:	f000 f82a 	bl	0x359e
    354a:	0008      	movs	r0, r1
    354c:	bd00      	pop	{pc}
    354e:	2200      	movs	r2, #0
    3550:	b500      	push	{lr}
    3552:	3220      	adds	r2, #32
    3554:	f000 f830 	bl	0x35b8
    3558:	0008      	movs	r0, r1
    355a:	bd00      	pop	{pc}
    355c:	2100      	movs	r1, #0
    355e:	b500      	push	{lr}
    3560:	f000 f804 	bl	0x356c
    3564:	e01e      	b.n	0x35a4
    3566:	2100      	movs	r1, #0
    3568:	15c3      	asrs	r3, r0, #23
    356a:	d4e6      	bmi.n	0x353a
    356c:	b510      	push	{r4, lr}
    356e:	468c      	mov	ip, r1
    3570:	17c3      	asrs	r3, r0, #31
    3572:	0040      	lsls	r0, r0, #1
    3574:	0e02      	lsrs	r2, r0, #24
    3576:	d00a      	beq.n	0x358e
    3578:	2aff      	cmp	r2, #255	; 0xff
    357a:	d00c      	beq.n	0x3596
    357c:	1e51      	subs	r1, r2, #1
    357e:	3a7f      	subs	r2, #127	; 0x7f
    3580:	0609      	lsls	r1, r1, #24
    3582:	1a40      	subs	r0, r0, r1
    3584:	4058      	eors	r0, r3
    3586:	1ac0      	subs	r0, r0, r3
    3588:	1101      	asrs	r1, r0, #4
    358a:	0700      	lsls	r0, r0, #28
    358c:	e01f      	b.n	0x35ce
    358e:	2000      	movs	r0, #0
    3590:	0001      	movs	r1, r0
    3592:	0003      	movs	r3, r0
    3594:	bd10      	pop	{r4, pc}
    3596:	43d8      	mvns	r0, r3
    3598:	43d9      	mvns	r1, r3
    359a:	bd10      	pop	{r4, pc}
    359c:	2200      	movs	r2, #0
    359e:	b500      	push	{lr}
    35a0:	f000 f80c 	bl	0x35bc
    35a4:	17ca      	asrs	r2, r1, #31
    35a6:	429a      	cmp	r2, r3
    35a8:	d100      	bne.n	0x35ac
    35aa:	bd00      	pop	{pc}
    35ac:	43d8      	mvns	r0, r3
    35ae:	2101      	movs	r1, #1
    35b0:	07c9      	lsls	r1, r1, #31
    35b2:	4041      	eors	r1, r0
    35b4:	bd00      	pop	{pc}
    35b6:	2200      	movs	r2, #0
    35b8:	150b      	asrs	r3, r1, #20
    35ba:	d4be      	bmi.n	0x353a
    35bc:	b510      	push	{r4, lr}
    35be:	4694      	mov	ip, r2
    35c0:	f000 f8b8 	bl	0x3734
    35c4:	1414      	asrs	r4, r2, #16
    35c6:	3401      	adds	r4, #1
    35c8:	da00      	bge.n	0x35cc
    35ca:	2100      	movs	r1, #0
    35cc:	17cb      	asrs	r3, r1, #31
    35ce:	4462      	add	r2, ip
    35d0:	3a34      	subs	r2, #52	; 0x34
    35d2:	d40c      	bmi.n	0x35ee
    35d4:	2a0c      	cmp	r2, #12
    35d6:	da07      	bge.n	0x35e8
    35d8:	0004      	movs	r4, r0
    35da:	4091      	lsls	r1, r2
    35dc:	4090      	lsls	r0, r2
    35de:	4252      	negs	r2, r2
    35e0:	3220      	adds	r2, #32
    35e2:	40d4      	lsrs	r4, r2
    35e4:	4321      	orrs	r1, r4
    35e6:	bd10      	pop	{r4, pc}
    35e8:	43d8      	mvns	r0, r3
    35ea:	43d9      	mvns	r1, r3
    35ec:	bd10      	pop	{r4, pc}
    35ee:	3220      	adds	r2, #32
    35f0:	d407      	bmi.n	0x3602
    35f2:	460c      	mov	r4, r1
    35f4:	4094      	lsls	r4, r2
    35f6:	4252      	negs	r2, r2
    35f8:	3220      	adds	r2, #32
    35fa:	4111      	asrs	r1, r2
    35fc:	40d0      	lsrs	r0, r2
    35fe:	4320      	orrs	r0, r4
    3600:	bd10      	pop	{r4, pc}
    3602:	0008      	movs	r0, r1
    3604:	17c9      	asrs	r1, r1, #31
    3606:	3220      	adds	r2, #32
    3608:	d403      	bmi.n	0x3612
    360a:	4252      	negs	r2, r2
    360c:	3220      	adds	r2, #32
    360e:	4110      	asrs	r0, r2
    3610:	bd10      	pop	{r4, pc}
    3612:	0018      	movs	r0, r3
    3614:	0019      	movs	r1, r3
    3616:	bd10      	pop	{r4, pc}
    3618:	0fc3      	lsrs	r3, r0, #31
    361a:	07db      	lsls	r3, r3, #31
    361c:	0041      	lsls	r1, r0, #1
    361e:	0e0a      	lsrs	r2, r1, #24
    3620:	d007      	beq.n	0x3632
    3622:	2aff      	cmp	r2, #255	; 0xff
    3624:	d008      	beq.n	0x3638
    3626:	0909      	lsrs	r1, r1, #4
    3628:	4a3d      	ldr	r2, [pc, #244]	; (0x3720)
    362a:	1889      	adds	r1, r1, r2
    362c:	4319      	orrs	r1, r3
    362e:	0740      	lsls	r0, r0, #29
    3630:	4770      	bx	lr
    3632:	0019      	movs	r1, r3
    3634:	2000      	movs	r0, #0
    3636:	4770      	bx	lr
    3638:	493a      	ldr	r1, [pc, #232]	; (0x3724)
    363a:	18c9      	adds	r1, r1, r3
    363c:	e7fa      	b.n	0x3634
    363e:	004a      	lsls	r2, r1, #1
    3640:	0d52      	lsrs	r2, r2, #21
    3642:	4b39      	ldr	r3, [pc, #228]	; (0x3728)
    3644:	1ad2      	subs	r2, r2, r3
    3646:	dd13      	ble.n	0x3670
    3648:	2aff      	cmp	r2, #255	; 0xff
    364a:	da1e      	bge.n	0x368a
    364c:	05d2      	lsls	r2, r2, #23
    364e:	0fcb      	lsrs	r3, r1, #31
    3650:	07db      	lsls	r3, r3, #31
    3652:	431a      	orrs	r2, r3
    3654:	00c3      	lsls	r3, r0, #3
    3656:	0f40      	lsrs	r0, r0, #29
    3658:	0309      	lsls	r1, r1, #12
    365a:	0a49      	lsrs	r1, r1, #9
    365c:	4308      	orrs	r0, r1
    365e:	4310      	orrs	r0, r2
    3660:	005b      	lsls	r3, r3, #1
    3662:	d301      	bcc.n	0x3668
    3664:	d001      	beq.n	0x366a
    3666:	3001      	adds	r0, #1
    3668:	4770      	bx	lr
    366a:	0843      	lsrs	r3, r0, #1
    366c:	d2fb      	bcs.n	0x3666
    366e:	4770      	bx	lr
    3670:	d002      	beq.n	0x3678
    3672:	0fc8      	lsrs	r0, r1, #31
    3674:	07c0      	lsls	r0, r0, #31
    3676:	4770      	bx	lr
    3678:	030a      	lsls	r2, r1, #12
    367a:	1312      	asrs	r2, r2, #12
    367c:	3201      	adds	r2, #1
    367e:	d1f8      	bne.n	0x3672
    3680:	0f42      	lsrs	r2, r0, #29
    3682:	2a07      	cmp	r2, #7
    3684:	d1f5      	bne.n	0x3672
    3686:	2201      	movs	r2, #1
    3688:	e000      	b.n	0x368c
    368a:	22ff      	movs	r2, #255	; 0xff
    368c:	0fc8      	lsrs	r0, r1, #31
    368e:	0200      	lsls	r0, r0, #8
    3690:	1880      	adds	r0, r0, r2
    3692:	05c0      	lsls	r0, r0, #23
    3694:	4770      	bx	lr
    3696:	2100      	movs	r1, #0
    3698:	000a      	movs	r2, r1
    369a:	2100      	movs	r1, #0
    369c:	e004      	b.n	0x36a8
    369e:	2100      	movs	r1, #0
    36a0:	000a      	movs	r2, r1
    36a2:	17c1      	asrs	r1, r0, #31
    36a4:	e003      	b.n	0x36ae
    36a6:	2200      	movs	r2, #0
    36a8:	2300      	movs	r3, #0
    36aa:	e005      	b.n	0x36b8
    36ac:	2200      	movs	r2, #0
    36ae:	17cb      	asrs	r3, r1, #31
    36b0:	4058      	eors	r0, r3
    36b2:	4059      	eors	r1, r3
    36b4:	1ac0      	subs	r0, r0, r3
    36b6:	4199      	sbcs	r1, r3
    36b8:	b530      	push	{r4, r5, lr}
    36ba:	4c1c      	ldr	r4, [pc, #112]	; (0x372c)
    36bc:	1aa2      	subs	r2, r4, r2
    36be:	2900      	cmp	r1, #0
    36c0:	d103      	bne.n	0x36ca
    36c2:	0001      	movs	r1, r0
    36c4:	d010      	beq.n	0x36e8
    36c6:	2000      	movs	r0, #0
    36c8:	3a20      	subs	r2, #32
    36ca:	154c      	asrs	r4, r1, #21
    36cc:	d112      	bne.n	0x36f4
    36ce:	d204      	bcs.n	0x36da
    36d0:	3a01      	subs	r2, #1
    36d2:	1800      	adds	r0, r0, r0
    36d4:	4149      	adcs	r1, r1
    36d6:	0d4c      	lsrs	r4, r1, #21
    36d8:	d3fa      	bcc.n	0x36d0
    36da:	4c15      	ldr	r4, [pc, #84]	; (0x3730)
    36dc:	42a2      	cmp	r2, r4
    36de:	d204      	bcs.n	0x36ea
    36e0:	0512      	lsls	r2, r2, #20
    36e2:	1889      	adds	r1, r1, r2
    36e4:	07db      	lsls	r3, r3, #31
    36e6:	18c9      	adds	r1, r1, r3
    36e8:	bd30      	pop	{r4, r5, pc}
    36ea:	43d2      	mvns	r2, r2
    36ec:	0d52      	lsrs	r2, r2, #21
    36ee:	2000      	movs	r0, #0
    36f0:	2100      	movs	r1, #0
    36f2:	e7f5      	b.n	0x36e0
    36f4:	d403      	bmi.n	0x36fe
    36f6:	3a01      	subs	r2, #1
    36f8:	1800      	adds	r0, r0, r0
    36fa:	4149      	adcs	r1, r1
    36fc:	d5fb      	bpl.n	0x36f6
    36fe:	320b      	adds	r2, #11
    3700:	0544      	lsls	r4, r0, #21
    3702:	0ac0      	lsrs	r0, r0, #11
    3704:	054d      	lsls	r5, r1, #21
    3706:	4328      	orrs	r0, r5
    3708:	0ac9      	lsrs	r1, r1, #11
    370a:	0064      	lsls	r4, r4, #1
    370c:	d003      	beq.n	0x3716
    370e:	2400      	movs	r4, #0
    3710:	4160      	adcs	r0, r4
    3712:	4161      	adcs	r1, r4
    3714:	e7e1      	b.n	0x36da
    3716:	d3e0      	bcc.n	0x36da
    3718:	0844      	lsrs	r4, r0, #1
    371a:	e7f8      	b.n	0x370e
    371c:	07ff      	lsls	r7, r7, #31
    371e:	0000      	movs	r0, r0
    3720:	0000      	movs	r0, r0
    3722:	3800      	subs	r0, #0
    3724:	0000      	movs	r0, r0
    3726:	7ff0      	ldrb	r0, [r6, #31]
    3728:	0380      	lsls	r0, r0, #14
    372a:	0000      	movs	r0, r0
    372c:	0432      	lsls	r2, r6, #16
    372e:	0000      	movs	r0, r0
    3730:	07fe      	lsls	r6, r7, #31
    3732:	0000      	movs	r0, r0
    3734:	0d0a      	lsrs	r2, r1, #20
    3736:	0fcc      	lsrs	r4, r1, #31
    3738:	1e53      	subs	r3, r2, #1
    373a:	051b      	lsls	r3, r3, #20
    373c:	1ac9      	subs	r1, r1, r3
    373e:	0552      	lsls	r2, r2, #21
    3740:	d303      	bcc.n	0x374a
    3742:	43c9      	mvns	r1, r1
    3744:	4240      	negs	r0, r0
    3746:	d300      	bcc.n	0x374a
    3748:	3101      	adds	r1, #1
    374a:	0d52      	lsrs	r2, r2, #21
    374c:	d003      	beq.n	0x3756
    374e:	1c53      	adds	r3, r2, #1
    3750:	0adb      	lsrs	r3, r3, #11
    3752:	d007      	beq.n	0x3764
    3754:	1b12      	subs	r2, r2, r4
    3756:	2000      	movs	r0, #0
    3758:	0064      	lsls	r4, r4, #1
    375a:	1c61      	adds	r1, r4, #1
    375c:	0789      	lsls	r1, r1, #30
    375e:	1289      	asrs	r1, r1, #10
    3760:	3a80      	subs	r2, #128	; 0x80
    3762:	0312      	lsls	r2, r2, #12
    3764:	4b69      	ldr	r3, [pc, #420]	; (0x390c)
    3766:	1ad2      	subs	r2, r2, r3
    3768:	4770      	bx	lr
    376a:	3202      	adds	r2, #2
    376c:	d425      	bmi.n	0x37ba
    376e:	2a0c      	cmp	r2, #12
    3770:	da1c      	bge.n	0x37ac
    3772:	2511      	movs	r5, #17
    3774:	1aad      	subs	r5, r5, r2
    3776:	000b      	movs	r3, r1
    3778:	412b      	asrs	r3, r5
    377a:	3208      	adds	r2, #8
    377c:	3507      	adds	r5, #7
    377e:	0006      	movs	r6, r0
    3780:	40ee      	lsrs	r6, r5
    3782:	4090      	lsls	r0, r2
    3784:	4091      	lsls	r1, r2
    3786:	4331      	orrs	r1, r6
    3788:	ccf0      	ldmia	r4, {r4, r5, r6, r7}
    378a:	4363      	muls	r3, r4
    378c:	151a      	asrs	r2, r3, #20
    378e:	2300      	movs	r3, #0
    3790:	415a      	adcs	r2, r3
    3792:	4355      	muls	r5, r2
    3794:	4356      	muls	r6, r2
    3796:	4357      	muls	r7, r2
    3798:	02bf      	lsls	r7, r7, #10
    379a:	12f4      	asrs	r4, r6, #11
    379c:	0576      	lsls	r6, r6, #21
    379e:	1976      	adds	r6, r6, r5
    37a0:	4167      	adcs	r7, r4
    37a2:	17ed      	asrs	r5, r5, #31
    37a4:	197f      	adds	r7, r7, r5
    37a6:	1b80      	subs	r0, r0, r6
    37a8:	41b9      	sbcs	r1, r7
    37aa:	4770      	bx	lr
    37ac:	220c      	movs	r2, #12
    37ae:	2000      	movs	r0, #0
    37b0:	17c9      	asrs	r1, r1, #31
    37b2:	0049      	lsls	r1, r1, #1
    37b4:	3101      	adds	r1, #1
    37b6:	0509      	lsls	r1, r1, #20
    37b8:	e7db      	b.n	0x3772
    37ba:	0209      	lsls	r1, r1, #8
    37bc:	0e03      	lsrs	r3, r0, #24
    37be:	4319      	orrs	r1, r3
    37c0:	0200      	lsls	r0, r0, #8
    37c2:	4253      	negs	r3, r2
    37c4:	3220      	adds	r2, #32
    37c6:	d408      	bmi.n	0x37da
    37c8:	000c      	movs	r4, r1
    37ca:	4119      	asrs	r1, r3
    37cc:	4094      	lsls	r4, r2
    37ce:	40d8      	lsrs	r0, r3
    37d0:	4320      	orrs	r0, r4
    37d2:	2200      	movs	r2, #0
    37d4:	4150      	adcs	r0, r2
    37d6:	4151      	adcs	r1, r2
    37d8:	4770      	bx	lr
    37da:	0008      	movs	r0, r1
    37dc:	17c9      	asrs	r1, r1, #31
    37de:	3b20      	subs	r3, #32
    37e0:	3220      	adds	r2, #32
    37e2:	d5f1      	bpl.n	0x37c8
    37e4:	2000      	movs	r0, #0
    37e6:	2100      	movs	r1, #0
    37e8:	2200      	movs	r2, #0
    37ea:	4770      	bx	lr
    37ec:	b5f0      	push	{r4, r5, r6, r7, lr}
    37ee:	f7ff fe56 	bl	0x349e
    37f2:	f000 f82b 	bl	0x384c
    37f6:	4684      	mov	ip, r0
    37f8:	f000 f84c 	bl	0x3894
    37fc:	b403      	push	{r0, r1}
    37fe:	4660      	mov	r0, ip
    3800:	f000 f866 	bl	0x38d0
    3804:	bc0c      	pop	{r2, r3}
    3806:	f7ff fe50 	bl	0x34aa
    380a:	e474      	b.n	0x30f6
    380c:	b5f0      	push	{r4, r5, r6, r7, lr}
    380e:	f7ff fe46 	bl	0x349e
    3812:	f000 f81b 	bl	0x384c
    3816:	f000 f83d 	bl	0x3894
    381a:	e006      	b.n	0x382a
    381c:	b5f0      	push	{r4, r5, r6, r7, lr}
    381e:	f7ff fe3e 	bl	0x349e
    3822:	f000 f813 	bl	0x384c
    3826:	f000 f853 	bl	0x38d0
    382a:	f7ff fe3e 	bl	0x34aa
    382e:	bdf0      	pop	{r4, r5, r6, r7, pc}
    3830:	b5f0      	push	{r4, r5, r6, r7, lr}
    3832:	f7ff fe34 	bl	0x349e
    3836:	f000 f809 	bl	0x384c
    383a:	4684      	mov	ip, r0
    383c:	f000 f82a 	bl	0x3894
    3840:	b403      	push	{r0, r1}
    3842:	4660      	mov	r0, ip
    3844:	f000 f844 	bl	0x38d0
    3848:	bc0c      	pop	{r2, r3}
    384a:	e7ee      	b.n	0x382a
    384c:	b500      	push	{lr}
    384e:	f7ff ff71 	bl	0x3734
    3852:	a431      	add	r4, pc, #196	; (adr r4, 0x3918)
    3854:	f7ff ff89 	bl	0x376a
    3858:	2400      	movs	r4, #0
    385a:	4d2d      	ldr	r5, [pc, #180]	; (0x3910)
    385c:	4e2d      	ldr	r6, [pc, #180]	; (0x3914)
    385e:	07d2      	lsls	r2, r2, #31
    3860:	d302      	bcc.n	0x3868
    3862:	43f6      	mvns	r6, r6
    3864:	426d      	negs	r5, r5
    3866:	4166      	adcs	r6, r4
    3868:	0052      	lsls	r2, r2, #1
    386a:	d204      	bcs.n	0x3876
    386c:	46a2      	mov	sl, r4
    386e:	46a3      	mov	fp, r4
    3870:	46a8      	mov	r8, r5
    3872:	46b1      	mov	r9, r6
    3874:	e003      	b.n	0x387e
    3876:	46a0      	mov	r8, r4
    3878:	46a1      	mov	r9, r4
    387a:	46aa      	mov	sl, r5
    387c:	46b3      	mov	fp, r6
    387e:	a46f      	add	r4, pc, #444	; (adr r4, 0x3a3c)
    3880:	46a4      	mov	ip, r4
    3882:	2701      	movs	r7, #1
    3884:	261f      	movs	r6, #31
    3886:	f7ff fe1d 	bl	0x34c4
    388a:	3701      	adds	r7, #1
    388c:	3e01      	subs	r6, #1
    388e:	2f21      	cmp	r7, #33	; 0x21
    3890:	d1f9      	bne.n	0x3886
    3892:	bd00      	pop	{pc}
    3894:	4659      	mov	r1, fp
    3896:	b284      	uxth	r4, r0
    3898:	b28d      	uxth	r5, r1
    389a:	436c      	muls	r4, r5
    389c:	1406      	asrs	r6, r0, #16
    389e:	4375      	muls	r5, r6
    38a0:	140b      	asrs	r3, r1, #16
    38a2:	435e      	muls	r6, r3
    38a4:	b282      	uxth	r2, r0
    38a6:	435a      	muls	r2, r3
    38a8:	18ad      	adds	r5, r5, r2
    38aa:	17ea      	asrs	r2, r5, #31
    38ac:	d700      	bvc.n	0x38b0
    38ae:	43d2      	mvns	r2, r2
    38b0:	0412      	lsls	r2, r2, #16
    38b2:	18b6      	adds	r6, r6, r2
    38b4:	042a      	lsls	r2, r5, #16
    38b6:	0c2b      	lsrs	r3, r5, #16
    38b8:	1912      	adds	r2, r2, r4
    38ba:	4173      	adcs	r3, r6
    38bc:	4640      	mov	r0, r8
    38be:	4649      	mov	r1, r9
    38c0:	009d      	lsls	r5, r3, #2
    38c2:	179b      	asrs	r3, r3, #30
    38c4:	0f92      	lsrs	r2, r2, #30
    38c6:	432a      	orrs	r2, r5
    38c8:	4190      	sbcs	r0, r2
    38ca:	4199      	sbcs	r1, r3
    38cc:	223e      	movs	r2, #62	; 0x3e
    38ce:	e6ee      	b.n	0x36ae
    38d0:	4649      	mov	r1, r9
    38d2:	b284      	uxth	r4, r0
    38d4:	b28d      	uxth	r5, r1
    38d6:	436c      	muls	r4, r5
    38d8:	1406      	asrs	r6, r0, #16
    38da:	4375      	muls	r5, r6
    38dc:	140b      	asrs	r3, r1, #16
    38de:	435e      	muls	r6, r3
    38e0:	b282      	uxth	r2, r0
    38e2:	435a      	muls	r2, r3
    38e4:	18ad      	adds	r5, r5, r2
    38e6:	17ea      	asrs	r2, r5, #31
    38e8:	d700      	bvc.n	0x38ec
    38ea:	43d2      	mvns	r2, r2
    38ec:	0412      	lsls	r2, r2, #16
    38ee:	18b6      	adds	r6, r6, r2
    38f0:	042a      	lsls	r2, r5, #16
    38f2:	0c2b      	lsrs	r3, r5, #16
    38f4:	1912      	adds	r2, r2, r4
    38f6:	4173      	adcs	r3, r6
    38f8:	4650      	mov	r0, sl
    38fa:	4659      	mov	r1, fp
    38fc:	009d      	lsls	r5, r3, #2
    38fe:	179b      	asrs	r3, r3, #30
    3900:	0f92      	lsrs	r2, r2, #30
    3902:	432a      	orrs	r2, r5
    3904:	4150      	adcs	r0, r2
    3906:	4159      	adcs	r1, r3
    3908:	223e      	movs	r2, #62	; 0x3e
    390a:	e6d0      	b.n	0x36ae
    390c:	03ff      	lsls	r7, r7, #15
    390e:	0000      	movs	r0, r0
    3910:	4dbb      	ldr	r5, [pc, #748]	; (0x3c00)
    3912:	9df0      	ldr	r5, [sp, #960]	; 0x3c0
    3914:	56c5      	ldrsb	r5, [r0, r3]
    3916:	36f6      	adds	r6, #246	; 0xf6
    3918:	517d      	str	r5, [r7, r5]
    391a:	0000      	movs	r0, r0
    391c:	611a      	str	r2, [r3, #16]
    391e:	0014      	movs	r4, r2
    3920:	8885      	ldrh	r5, [r0, #4]
    3922:	000a      	movs	r2, r1
    3924:	21fb      	movs	r1, #251	; 0xfb
    3926:	0019      	movs	r1, r3
    3928:	b5f0      	push	{r4, r5, r6, r7, lr}
    392a:	f7ff fdb8 	bl	0x349e
    392e:	4d40      	ldr	r5, [pc, #256]	; (0x3a30)
    3930:	000c      	movs	r4, r1
    3932:	402c      	ands	r4, r5
    3934:	d001      	beq.n	0x393a
    3936:	42ac      	cmp	r4, r5
    3938:	d102      	bne.n	0x3940
    393a:	0d09      	lsrs	r1, r1, #20
    393c:	0509      	lsls	r1, r1, #20
    393e:	2000      	movs	r0, #0
    3940:	001c      	movs	r4, r3
    3942:	402c      	ands	r4, r5
    3944:	d001      	beq.n	0x394a
    3946:	42ac      	cmp	r4, r5
    3948:	d102      	bne.n	0x3950
    394a:	0d1b      	lsrs	r3, r3, #20
    394c:	051b      	lsls	r3, r3, #20
    394e:	2200      	movs	r2, #0
    3950:	2600      	movs	r6, #0
    3952:	02ed      	lsls	r5, r5, #11
    3954:	2b00      	cmp	r3, #0
    3956:	d504      	bpl.n	0x3962
    3958:	2602      	movs	r6, #2
    395a:	406b      	eors	r3, r5
    395c:	4069      	eors	r1, r5
    395e:	d400      	bmi.n	0x3962
    3960:	4276      	negs	r6, r6
    3962:	194f      	adds	r7, r1, r5
    3964:	d504      	bpl.n	0x3970
    3966:	4299      	cmp	r1, r3
    3968:	dd0c      	ble.n	0x3984
    396a:	3601      	adds	r6, #1
    396c:	4069      	eors	r1, r5
    396e:	e003      	b.n	0x3978
    3970:	42bb      	cmp	r3, r7
    3972:	da07      	bge.n	0x3984
    3974:	3e01      	subs	r6, #1
    3976:	406b      	eors	r3, r5
    3978:	0007      	movs	r7, r0
    397a:	0010      	movs	r0, r2
    397c:	003a      	movs	r2, r7
    397e:	000f      	movs	r7, r1
    3980:	0019      	movs	r1, r3
    3982:	003b      	movs	r3, r7
    3984:	b440      	push	{r6}
    3986:	2a00      	cmp	r2, #0
    3988:	d10f      	bne.n	0x39aa
    398a:	2b00      	cmp	r3, #0
    398c:	d00a      	beq.n	0x39a4
    398e:	005c      	lsls	r4, r3, #1
    3990:	1564      	asrs	r4, r4, #21
    3992:	3401      	adds	r4, #1
    3994:	d109      	bne.n	0x39aa
    3996:	004c      	lsls	r4, r1, #1
    3998:	1564      	asrs	r4, r4, #21
    399a:	3401      	adds	r4, #1
    399c:	d102      	bne.n	0x39a4
    399e:	3901      	subs	r1, #1
    39a0:	3b01      	subs	r3, #1
    39a2:	e002      	b.n	0x39aa
    39a4:	2000      	movs	r0, #0
    39a6:	2100      	movs	r1, #0
    39a8:	e02e      	b.n	0x3a08
    39aa:	f7ff fba3 	bl	0x30f4
    39ae:	223e      	movs	r2, #62	; 0x3e
    39b0:	f7ff fdf5 	bl	0x359e
    39b4:	4682      	mov	sl, r0
    39b6:	468b      	mov	fp, r1
    39b8:	2000      	movs	r0, #0
    39ba:	2100      	movs	r1, #0
    39bc:	4680      	mov	r8, r0
    39be:	2201      	movs	r2, #1
    39c0:	0792      	lsls	r2, r2, #30
    39c2:	4691      	mov	r9, r2
    39c4:	a41d      	add	r4, pc, #116	; (adr r4, 0x3a3c)
    39c6:	46a4      	mov	ip, r4
    39c8:	2701      	movs	r7, #1
    39ca:	261f      	movs	r6, #31
    39cc:	f7ff fd73 	bl	0x34b6
    39d0:	3701      	adds	r7, #1
    39d2:	3e01      	subs	r6, #1
    39d4:	2f21      	cmp	r7, #33	; 0x21
    39d6:	d1f9      	bne.n	0x39cc
    39d8:	464a      	mov	r2, r9
    39da:	4653      	mov	r3, sl
    39dc:	3a0c      	subs	r2, #12
    39de:	2401      	movs	r4, #1
    39e0:	0764      	lsls	r4, r4, #29
    39e2:	2700      	movs	r7, #0
    39e4:	0852      	lsrs	r2, r2, #1
    39e6:	001b      	movs	r3, r3
    39e8:	d405      	bmi.n	0x39f6
    39ea:	4193      	sbcs	r3, r2
    39ec:	1900      	adds	r0, r0, r4
    39ee:	4179      	adcs	r1, r7
    39f0:	0864      	lsrs	r4, r4, #1
    39f2:	d1f7      	bne.n	0x39e4
    39f4:	e004      	b.n	0x3a00
    39f6:	4153      	adcs	r3, r2
    39f8:	1b00      	subs	r0, r0, r4
    39fa:	41b9      	sbcs	r1, r7
    39fc:	0864      	lsrs	r4, r4, #1
    39fe:	d1f1      	bne.n	0x39e4
    3a00:	07ce      	lsls	r6, r1, #31
    3a02:	1049      	asrs	r1, r1, #1
    3a04:	0840      	lsrs	r0, r0, #1
    3a06:	4330      	orrs	r0, r6
    3a08:	bc40      	pop	{r6}
    3a0a:	2e00      	cmp	r6, #0
    3a0c:	d00a      	beq.n	0x3a24
    3a0e:	4c09      	ldr	r4, [pc, #36]	; (0x3a34)
    3a10:	4d09      	ldr	r5, [pc, #36]	; (0x3a38)
    3a12:	d501      	bpl.n	0x3a18
    3a14:	43e4      	mvns	r4, r4
    3a16:	43ed      	mvns	r5, r5
    3a18:	07f6      	lsls	r6, r6, #31
    3a1a:	d101      	bne.n	0x3a20
    3a1c:	1900      	adds	r0, r0, r4
    3a1e:	4169      	adcs	r1, r5
    3a20:	1900      	adds	r0, r0, r4
    3a22:	4169      	adcs	r1, r5
    3a24:	223d      	movs	r2, #61	; 0x3d
    3a26:	f7ff fe42 	bl	0x36ae
    3a2a:	f7ff fd3e 	bl	0x34aa
    3a2e:	bdf0      	pop	{r4, r5, r6, r7, pc}
    3a30:	0000      	movs	r0, r0
    3a32:	7ff0      	ldrb	r0, [r6, #31]
    3a34:	308d      	adds	r0, #141	; 0x8d
    3a36:	885a      	ldrh	r2, [r3, #2]
    3a38:	f6a8 3243 	subw	r2, r8, #2883	; 0xb43
    3a3c:	4f69      	ldr	r7, [pc, #420]	; (0x3be4)
    3a3e:	61bb      	str	r3, [r7, #24]
    3a40:	6705      	str	r5, [r0, #112]	; 0x70
    3a42:	1dac      	adds	r4, r5, #6
    3a44:	6eb1      	ldr	r1, [r6, #104]	; 0x68
    3a46:	9640      	str	r6, [sp, #256]	; 0x100
    3a48:	bafc      	revsh	r4, r7
    3a4a:	0fad      	lsrs	r5, r5, #30
    3a4c:	db72      	blt.n	0x3b34
    3a4e:	ab0b      	add	r3, sp, #44	; 0x2c
    3a50:	6ea6      	ldr	r6, [r4, #104]	; 0x68
    3a52:	07f5      	lsls	r5, r6, #31
    3a54:	bd39      	pop	{r0, r3, r4, r5, pc}
    3a56:	e59f      	b.n	0x3598
    3a58:	ab76      	add	r3, sp, #472	; 0x1d8
    3a5a:	03fe      	lsls	r6, r7, #15
    3a5c:	624b      	str	r3, [r1, #36]	; 0x24
    3a5e:	ba97      	hlt	0x0017
    3a60:	d55b      	bpl.n	0x3b1a
    3a62:	01ff      	lsls	r7, r7, #7
    3a64:	94d6      	str	r4, [sp, #856]	; 0x358
    3a66:	dddb      	ble.n	0x3a20
    3a68:	faaa 00ff 			; <UNDEFINED> instruction: 0xfaaa00ff
    3a6c:	ea5d 56ee 	orrs.w	r6, sp, lr, asr #23
    3a70:	ff55 007f 	vqadd.u16	q8, <illegal reg q2.5>, <illegal reg q15.5>
    3a74:	776e      	strb	r6, [r5, #29]
    3a76:	aab7      	add	r2, sp, #732	; 0x2dc
    3a78:	ffea 003f 	vshr.u32	d16, d31, #22
    3a7c:	bbbc      	cbnz	r4, 0x3aee
    3a7e:	5555      	strb	r5, [r2, r5]
    3a80:	fffd 001f 	vshr.u32	d16, d15, #3
    3a84:	adde      	add	r5, sp, #888	; 0x378
    3a86:	aaaa      	add	r2, sp, #680	; 0x2a8
    3a88:	ffff 000f 	vaddl.u<illegal width 64>	q8, d15, d15
    3a8c:	556f      	strb	r7, [r5, r5]
    3a8e:	f555 ffff 	bl	0xffd59a90
    3a92:	0007      	movs	r7, r0
    3a94:	aaab      	add	r2, sp, #684	; 0x2ac
    3a96:	feaa ffff 	mcr2	15, 5, pc, cr10, cr15, {7}	; <UNPREDICTABLE>
    3a9a:	0003      	movs	r3, r0
    3a9c:	5555      	strb	r5, [r2, r5]
    3a9e:	ffd5 ffff 			; <UNDEFINED> instruction: 0xffd5ffff
    3aa2:	0001      	movs	r1, r0
    3aa4:	aaab      	add	r2, sp, #684	; 0x2ac
    3aa6:	fffa ffff 			; <UNDEFINED> instruction: 0xfffaffff
    3aaa:	0000      	movs	r0, r0
    3aac:	5555      	strb	r5, [r2, r5]
    3aae:	ffff 7fff 			; <UNDEFINED> instruction: 0xffff7fff
    3ab2:	0000      	movs	r0, r0
    3ab4:	eaab ffff 			; <UNDEFINED> instruction: 0xeaabffff
    3ab8:	3fff      	subs	r7, #255	; 0xff
    3aba:	0000      	movs	r0, r0
    3abc:	fd55 ffff 	ldc2l	15, cr15, [r5, #-1020]	; 0xfffffc04
    3ac0:	1fff      	subs	r7, r7, #7
    3ac2:	0000      	movs	r0, r0
    3ac4:	ffab ffff 			; <UNDEFINED> instruction: 0xffabffff
    3ac8:	0fff      	lsrs	r7, r7, #31
    3aca:	0000      	movs	r0, r0
    3acc:	fff5 ffff 			; <UNDEFINED> instruction: 0xfff5ffff
    3ad0:	07ff      	lsls	r7, r7, #31
    3ad2:	0000      	movs	r0, r0
    3ad4:	ffff ffff 			; <UNDEFINED> instruction: 0xffffffff
    3ad8:	03ff      	lsls	r7, r7, #15
    3ada:	0000      	movs	r0, r0
    3adc:	0000      	movs	r0, r0
    3ade:	0000      	movs	r0, r0
    3ae0:	0200      	lsls	r0, r0, #8
    3ae2:	0000      	movs	r0, r0
    3ae4:	0000      	movs	r0, r0
    3ae6:	0000      	movs	r0, r0
    3ae8:	0100      	lsls	r0, r0, #4
    3aea:	0000      	movs	r0, r0
    3aec:	0000      	movs	r0, r0
    3aee:	0000      	movs	r0, r0
    3af0:	0080      	lsls	r0, r0, #2
    3af2:	0000      	movs	r0, r0
    3af4:	0000      	movs	r0, r0
    3af6:	0000      	movs	r0, r0
    3af8:	0040      	lsls	r0, r0, #1
    3afa:	0000      	movs	r0, r0
    3afc:	0000      	movs	r0, r0
    3afe:	0000      	movs	r0, r0
    3b00:	0020      	movs	r0, r4
    3b02:	0000      	movs	r0, r0
    3b04:	0000      	movs	r0, r0
    3b06:	0000      	movs	r0, r0
    3b08:	0010      	movs	r0, r2
    3b0a:	0000      	movs	r0, r0
    3b0c:	0000      	movs	r0, r0
    3b0e:	0000      	movs	r0, r0
    3b10:	0008      	movs	r0, r1
    3b12:	0000      	movs	r0, r0
    3b14:	0000      	movs	r0, r0
    3b16:	0000      	movs	r0, r0
    3b18:	0004      	movs	r4, r0
    3b1a:	0000      	movs	r0, r0
    3b1c:	0000      	movs	r0, r0
    3b1e:	0000      	movs	r0, r0
    3b20:	0002      	movs	r2, r0
    3b22:	0000      	movs	r0, r0
    3b24:	0000      	movs	r0, r0
    3b26:	0000      	movs	r0, r0
    3b28:	0001      	movs	r1, r0
    3b2a:	0000      	movs	r0, r0
    3b2c:	0000      	movs	r0, r0
    3b2e:	8000      	strh	r0, [r0, #0]
    3b30:	0000      	movs	r0, r0
    3b32:	0000      	movs	r0, r0
    3b34:	0000      	movs	r0, r0
    3b36:	4000      	ands	r0, r0
    3b38:	0000      	movs	r0, r0
    3b3a:	0000      	movs	r0, r0
    3b3c:	b5f0      	push	{r4, r5, r6, r7, lr}
    3b3e:	f7ff fdf9 	bl	0x3734
    3b42:	a454      	add	r4, pc, #336	; (adr r4, 0x3c94)
    3b44:	f7ff fe11 	bl	0x376a
    3b48:	2900      	cmp	r1, #0
    3b4a:	da04      	bge.n	0x3b56
    3b4c:	4c20      	ldr	r4, [pc, #128]	; (0x3bd0)
    3b4e:	4d21      	ldr	r5, [pc, #132]	; (0x3bd4)
    3b50:	1900      	adds	r0, r0, r4
    3b52:	4169      	adcs	r1, r5
    3b54:	3a01      	subs	r2, #1
    3b56:	b404      	push	{r2}
    3b58:	2701      	movs	r7, #1
    3b5a:	a652      	add	r6, pc, #328	; (adr r6, 0x3ca4)
    3b5c:	2200      	movs	r2, #0
    3b5e:	2301      	movs	r3, #1
    3b60:	079b      	lsls	r3, r3, #30
    3b62:	ce30      	ldmia	r6!, {r4, r5}
    3b64:	46b4      	mov	ip, r6
    3b66:	1b00      	subs	r0, r0, r4
    3b68:	41a9      	sbcs	r1, r5
    3b6a:	d40b      	bmi.n	0x3b84
    3b6c:	427e      	negs	r6, r7
    3b6e:	3620      	adds	r6, #32
    3b70:	001d      	movs	r5, r3
    3b72:	413d      	asrs	r5, r7
    3b74:	001c      	movs	r4, r3
    3b76:	40b4      	lsls	r4, r6
    3b78:	0016      	movs	r6, r2
    3b7a:	40fe      	lsrs	r6, r7
    3b7c:	4334      	orrs	r4, r6
    3b7e:	4162      	adcs	r2, r4
    3b80:	416b      	adcs	r3, r5
    3b82:	e001      	b.n	0x3b88
    3b84:	1900      	adds	r0, r0, r4
    3b86:	4169      	adcs	r1, r5
    3b88:	4666      	mov	r6, ip
    3b8a:	3701      	adds	r7, #1
    3b8c:	2f21      	cmp	r7, #33	; 0x21
    3b8e:	d1e8      	bne.n	0x3b62
    3b90:	b285      	uxth	r5, r0
    3b92:	b29e      	uxth	r6, r3
    3b94:	4375      	muls	r5, r6
    3b96:	1407      	asrs	r7, r0, #16
    3b98:	437e      	muls	r6, r7
    3b9a:	0c19      	lsrs	r1, r3, #16
    3b9c:	434f      	muls	r7, r1
    3b9e:	b284      	uxth	r4, r0
    3ba0:	434c      	muls	r4, r1
    3ba2:	17f1      	asrs	r1, r6, #31
    3ba4:	1936      	adds	r6, r6, r4
    3ba6:	2400      	movs	r4, #0
    3ba8:	4161      	adcs	r1, r4
    3baa:	0409      	lsls	r1, r1, #16
    3bac:	187f      	adds	r7, r7, r1
    3bae:	0434      	lsls	r4, r6, #16
    3bb0:	0c31      	lsrs	r1, r6, #16
    3bb2:	1964      	adds	r4, r4, r5
    3bb4:	4179      	adcs	r1, r7
    3bb6:	0fa4      	lsrs	r4, r4, #30
    3bb8:	0088      	lsls	r0, r1, #2
    3bba:	4320      	orrs	r0, r4
    3bbc:	1789      	asrs	r1, r1, #30
    3bbe:	1880      	adds	r0, r0, r2
    3bc0:	4159      	adcs	r1, r3
    3bc2:	bc04      	pop	{r2}
    3bc4:	4252      	negs	r2, r2
    3bc6:	323e      	adds	r2, #62	; 0x3e
    3bc8:	f7ff fd71 	bl	0x36ae
    3bcc:	bdf0      	pop	{r4, r5, r6, r7, pc}
    3bce:	0000      	movs	r0, r0
    3bd0:	de6b      	udf	#107	; 0x6b
    3bd2:	f473 85fd 	bne.w	0xfff377d0
    3bd6:	2c5c      	cmp	r4, #92	; 0x5c
    3bd8:	b5f0      	push	{r4, r5, r6, r7, lr}
    3bda:	004f      	lsls	r7, r1, #1
    3bdc:	d250      	bcs.n	0x3c80
    3bde:	157f      	asrs	r7, r7, #21
    3be0:	d04e      	beq.n	0x3c80
    3be2:	3701      	adds	r7, #1
    3be4:	d04f      	beq.n	0x3c86
    3be6:	f7ff fda5 	bl	0x3734
    3bea:	b404      	push	{r2}
    3bec:	0249      	lsls	r1, r1, #9
    3bee:	0dc2      	lsrs	r2, r0, #23
    3bf0:	4311      	orrs	r1, r2
    3bf2:	0240      	lsls	r0, r0, #9
    3bf4:	2701      	movs	r7, #1
    3bf6:	a62b      	add	r6, pc, #172	; (adr r6, 0x3ca4)
    3bf8:	46b4      	mov	ip, r6
    3bfa:	2200      	movs	r2, #0
    3bfc:	2300      	movs	r3, #0
    3bfe:	427e      	negs	r6, r7
    3c00:	3620      	adds	r6, #32
    3c02:	000d      	movs	r5, r1
    3c04:	413d      	asrs	r5, r7
    3c06:	000c      	movs	r4, r1
    3c08:	40b4      	lsls	r4, r6
    3c0a:	0006      	movs	r6, r0
    3c0c:	40fe      	lsrs	r6, r7
    3c0e:	4334      	orrs	r4, r6
    3c10:	4144      	adcs	r4, r0
    3c12:	414d      	adcs	r5, r1
    3c14:	0fae      	lsrs	r6, r5, #30
    3c16:	d105      	bne.n	0x3c24
    3c18:	0020      	movs	r0, r4
    3c1a:	0029      	movs	r1, r5
    3c1c:	4666      	mov	r6, ip
    3c1e:	ce30      	ldmia	r6!, {r4, r5}
    3c20:	1b12      	subs	r2, r2, r4
    3c22:	41ab      	sbcs	r3, r5
    3c24:	2408      	movs	r4, #8
    3c26:	44a4      	add	ip, r4
    3c28:	3701      	adds	r7, #1
    3c2a:	2f21      	cmp	r7, #33	; 0x21
    3c2c:	d1e7      	bne.n	0x3bfe
    3c2e:	0089      	lsls	r1, r1, #2
    3c30:	1089      	asrs	r1, r1, #2
    3c32:	1812      	adds	r2, r2, r0
    3c34:	414b      	adcs	r3, r1
    3c36:	bc80      	pop	{r7}
    3c38:	a417      	add	r4, pc, #92	; (adr r4, 0x3c98)
    3c3a:	cc13      	ldmia	r4, {r0, r1, r4}
    3c3c:	3701      	adds	r7, #1
    3c3e:	4378      	muls	r0, r7
    3c40:	4379      	muls	r1, r7
    3c42:	437c      	muls	r4, r7
    3c44:	054f      	lsls	r7, r1, #21
    3c46:	12c9      	asrs	r1, r1, #11
    3c48:	17cd      	asrs	r5, r1, #31
    3c4a:	19c0      	adds	r0, r0, r7
    3c4c:	4169      	adcs	r1, r5
    3c4e:	02a7      	lsls	r7, r4, #10
    3c50:	15a4      	asrs	r4, r4, #22
    3c52:	17cd      	asrs	r5, r1, #31
    3c54:	19c9      	adds	r1, r1, r7
    3c56:	416c      	adcs	r4, r5
    3c58:	17dd      	asrs	r5, r3, #31
    3c5a:	1880      	adds	r0, r0, r2
    3c5c:	4159      	adcs	r1, r3
    3c5e:	416c      	adcs	r4, r5
    3c60:	223e      	movs	r2, #62	; 0x3e
    3c62:	17cd      	asrs	r5, r1, #31
    3c64:	42ac      	cmp	r4, r5
    3c66:	d008      	beq.n	0x3c7a
    3c68:	0900      	lsrs	r0, r0, #4
    3c6a:	070e      	lsls	r6, r1, #28
    3c6c:	4330      	orrs	r0, r6
    3c6e:	0909      	lsrs	r1, r1, #4
    3c70:	0726      	lsls	r6, r4, #28
    3c72:	4331      	orrs	r1, r6
    3c74:	1124      	asrs	r4, r4, #4
    3c76:	3a04      	subs	r2, #4
    3c78:	e7f3      	b.n	0x3c62
    3c7a:	f7ff fd18 	bl	0x36ae
    3c7e:	bdf0      	pop	{r4, r5, r6, r7, pc}
    3c80:	4902      	ldr	r1, [pc, #8]	; (0x3c8c)
    3c82:	2000      	movs	r0, #0
    3c84:	bdf0      	pop	{r4, r5, r6, r7, pc}
    3c86:	4902      	ldr	r1, [pc, #8]	; (0x3c90)
    3c88:	2000      	movs	r0, #0
    3c8a:	bdf0      	pop	{r4, r5, r6, r7, pc}
    3c8c:	0000      	movs	r0, r0
    3c8e:	fff0 0000 	vrev64.8	d16, d0
    3c92:	7ff0      	ldrb	r0, [r6, #31]
    3c94:	b8aa      			; <UNDEFINED> instruction: 0xb8aa
    3c96:	0000      	movs	r0, r0
    3c98:	de6b      	udf	#107	; 0x6b
    3c9a:	0013      	movs	r3, r2
    3c9c:	efa3 000f 	vaddl.s32	q0, d3, d15
    3ca0:	1721      	asrs	r1, r4, #28
    3ca2:	000b      	movs	r3, r1
    3ca4:	4bf3      	ldr	r3, [pc, #972]	; (0x4074)
    3ca6:	bf98      	it	ls
    3ca8:	23ec      	movls	r3, #236	; 0xec
    3caa:	19f3      	adds	r3, r6, r7
    3cac:	10d6      	asrs	r6, r2, #3
    3cae:	cd4d      	ldmia	r5!, {r0, r2, r3, r6}
    3cb0:	fbe3 0e47 			; <UNDEFINED> instruction: 0xfbe30e47
    3cb4:	b97a      	cbnz	r2, 0x3cd6
    3cb6:	8abc      	ldrh	r4, [r7, #20]
    3cb8:	c1db      	stmia	r1!, {r0, r1, r3, r4, r6, r7}
    3cba:	0789      	lsls	r1, r1, #30
    3cbc:	54cc      	strb	r4, [r1, r3]
    3cbe:	022c      	lsls	r4, r5, #8
    3cc0:	4618      	mov	r0, r3
    3cc2:	03e1      	lsls	r1, r4, #15
    3cc4:	3005      	adds	r0, #5
    3cc6:	e783      	b.n	0x3bd0
    3cc8:	29b0      	cmp	r1, #176	; 0xb0
    3cca:	01f8      	lsls	r0, r7, #7
    3ccc:	1f1e      	subs	r6, r3, #4
    3cce:	87e0      	strh	r0, [r4, #62]	; 0x3e
    3cd0:	0545      	lsls	r5, r0, #21
    3cd2:	00fe      	lsls	r6, r7, #3
    3cd4:	9e24      	ldr	r6, [sp, #144]	; 0x90
    3cd6:	ac41      	add	r4, sp, #260	; 0x104
    3cd8:	80a9      	strh	r1, [r5, #4]
    3cda:	007f      	lsls	r7, r7, #1
    3cdc:	1781      	asrs	r1, r0, #30
    3cde:	4562      	cmp	r2, ip
    3ce0:	e015      	b.n	0x3d0e
    3ce2:	003f      	movs	r7, r7
    3ce4:	10e6      	asrs	r6, r4, #3
    3ce6:	a9ab      	add	r1, sp, #684	; 0x2ac
    3ce8:	f802 001f 	strb.w	r0, [r2, pc, lsl #1]
    3cec:	5888      	ldr	r0, [r1, r2]
    3cee:	5545      	strb	r5, [r0, r5]
    3cf0:	fe00 000f 	cdp2	0, 0, cr0, cr0, cr15, {0}
    3cf4:	aac4      	add	r2, sp, #784	; 0x310
    3cf6:	0aa9      	lsrs	r1, r5, #10
    3cf8:	ff80 0007 	vaddl.u8	q0, d0, d7
    3cfc:	4556      	cmp	r6, sl
    3cfe:	0155      	lsls	r5, r2, #5
    3d00:	ffe0 0003 	vaddl.u32	q8, d0, d3
    3d04:	a9ab      	add	r1, sp, #684	; 0x2ac
    3d06:	002a      	movs	r2, r5
    3d08:	fff8 0001 	vrev64.32	d16, d1
    3d0c:	5545      	strb	r5, [r0, r5]
    3d0e:	0005      	movs	r5, r0
    3d10:	fffe 0000 	vaddl.u<illegal width 64>	q8, d14, d0
    3d14:	aaaa      	add	r2, sp, #680	; 0x2a8
    3d16:	8000      	strh	r0, [r0, #0]
    3d18:	7fff      	ldrb	r7, [r7, #31]
    3d1a:	0000      	movs	r0, r0
    3d1c:	1555      	asrs	r5, r2, #21
    3d1e:	e000      	b.n	0x3d22
    3d20:	3fff      	subs	r7, #255	; 0xff
    3d22:	0000      	movs	r0, r0
    3d24:	02ab      	lsls	r3, r5, #10
    3d26:	f800 1fff 	strb.w	r1, [r0, #255]!
    3d2a:	0000      	movs	r0, r0
    3d2c:	0055      	lsls	r5, r2, #1
    3d2e:	fe00 0fff 	mcr2	15, 0, r0, cr0, cr15, {7}
    3d32:	0000      	movs	r0, r0
    3d34:	000b      	movs	r3, r1
    3d36:	ff80 07ff 	vqshl.u64	q0, <illegal reg q15.5>, #0
    3d3a:	0000      	movs	r0, r0
    3d3c:	0001      	movs	r1, r0
    3d3e:	ffe0 03ff 	vrsra.u64	q8, <illegal reg q15.5>, #32
    3d42:	0000      	movs	r0, r0
    3d44:	0000      	movs	r0, r0
    3d46:	fff8 01ff 	vsra.u64	q8, <illegal reg q15.5>, #8
    3d4a:	0000      	movs	r0, r0
    3d4c:	0000      	movs	r0, r0
    3d4e:	fffe 00ff 	vshr.u64	q8, <illegal reg q15.5>, #2
    3d52:	0000      	movs	r0, r0
    3d54:	8000      	strh	r0, [r0, #0]
    3d56:	ffff 007f 	vshr.u32	q8, <illegal reg q15.5>, #1
    3d5a:	0000      	movs	r0, r0
    3d5c:	e000      	b.n	0x3d60
    3d5e:	ffff 003f 	vshr.u32	d16, d31, #1
    3d62:	0000      	movs	r0, r0
    3d64:	f800 ffff 	strb.w	pc, [r0, #255]!
    3d68:	001f      	movs	r7, r3
    3d6a:	0000      	movs	r0, r0
    3d6c:	fe00 ffff 	mcr2	15, 0, pc, cr0, cr15, {7}	; <UNPREDICTABLE>
    3d70:	000f      	movs	r7, r1
    3d72:	0000      	movs	r0, r0
    3d74:	ff80 ffff 			; <UNDEFINED> instruction: 0xff80ffff
    3d78:	0007      	movs	r7, r0
    3d7a:	0000      	movs	r0, r0
    3d7c:	ffe0 ffff 			; <UNDEFINED> instruction: 0xffe0ffff
    3d80:	0003      	movs	r3, r0
    3d82:	0000      	movs	r0, r0
    3d84:	fff8 ffff 			; <UNDEFINED> instruction: 0xfff8ffff
    3d88:	0001      	movs	r1, r0
    3d8a:	0000      	movs	r0, r0
    3d8c:	fffe ffff 			; <UNDEFINED> instruction: 0xfffeffff
    3d90:	0000      	movs	r0, r0
    3d92:	0000      	movs	r0, r0
    3d94:	0000      	movs	r0, r0
    3d96:	8000      	strh	r0, [r0, #0]
    3d98:	0000      	movs	r0, r0
    3d9a:	0000      	movs	r0, r0
    3d9c:	0000      	movs	r0, r0
    3d9e:	4000      	ands	r0, r0
    3da0:	0000      	movs	r0, r0
    3da2:	0000      	movs	r0, r0
    3da4:	4e49      	ldr	r6, [pc, #292]	; (0x3ecc)
    3da6:	4544      	cmp	r4, r8
    3da8:	2058      	movs	r0, #88	; 0x58
    3daa:	2020      	movs	r0, #32
    3dac:	5448      	strb	r0, [r1, r1]
    3dae:	004d      	lsls	r5, r1, #1
    3db0:	4e49      	ldr	r6, [pc, #292]	; (0x3ed8)
    3db2:	4f46      	ldr	r7, [pc, #280]	; (0x3ecc)
    3db4:	555f      	strb	r7, [r3, r5]
    3db6:	3246      	adds	r2, #70	; 0x46
    3db8:	5854      	ldr	r4, [r2, r1]
    3dba:	0054      	lsls	r4, r2, #1
    3dbc:	6152      	str	r2, [r2, #20]
    3dbe:	7073      	strb	r3, [r6, #1]
    3dc0:	6562      	str	r2, [r4, #84]	; 0x54
    3dc2:	7272      	strb	r2, [r6, #9]
    3dc4:	2079      	movs	r0, #121	; 0x79
    3dc6:	6950      	ldr	r0, [r2, #20]
    3dc8:	5200      	strh	r0, [r0, r0]
    3dca:	3250      	adds	r2, #80	; 0x50
    3dcc:	4220      	tst	r0, r4
    3dce:	6f6f      	ldr	r7, [r5, #116]	; 0x74
    3dd0:	0074      	lsls	r4, r6, #1
    3dd2:	0106      	lsls	r6, r0, #4
    3dd4:	0dc0      	lsrs	r0, r0, #23
    3dd6:	5010      	str	r0, [r2, r0]
    3dd8:	0dec      	lsrs	r4, r5, #23
    3dda:	5010      	str	r0, [r2, r0]
    3ddc:	047d      	lsls	r5, r7, #17
    3dde:	0000      	movs	r0, r0
    3de0:	000a      	movs	r2, r1
    3de2:	0000      	movs	r0, r0
    3de4:	0104      	lsls	r4, r0, #4
    3de6:	be00      	bkpt	0x0000
    3de8:	004f      	lsls	r7, r1, #1
    3dea:	0000      	movs	r0, r0
    3dec:	000c      	movs	r4, r1
    3dee:	0000      	movs	r0, r0
    3df0:	000e      	movs	r6, r1
    3df2:	0000      	movs	r0, r0
    3df4:	0001      	movs	r1, r0
    3df6:	0000      	movs	r0, r0
    3df8:	ffff 0003 	vaddl.u<illegal width 64>	q8, d15, d3
    3dfc:	ff03 00ff 	vqadd.u8	q0, <illegal reg q9.5>, <illegal reg q15.5>
    3e00:	0200      	lsls	r0, r0, #8
    3e02:	0000      	movs	r0, r0
    3e04:	0000      	movs	r0, r0
    3e06:	0000      	movs	r0, r0
    3e08:	ff03 02ff 	vqsub.u8	q0, <illegal reg q9.5>, <illegal reg q15.5>
    3e0c:	0200      	lsls	r0, r0, #8
    3e0e:	0800      	lsrs	r0, r0, #32
    3e10:	0900      	lsrs	r0, r0, #4
    3e12:	3702      	adds	r7, #2
    3e14:	0200      	lsls	r0, r0, #8
    3e16:	0001      	movs	r1, r0
    3e18:	fa80 0409 			; <UNDEFINED> instruction: 0xfa800409
    3e1c:	0000      	movs	r0, r0
    3e1e:	0802      	lsrs	r2, r0, #32
    3e20:	5006      	str	r6, [r0, r0]
    3e22:	0700      	lsls	r0, r0, #28
    3e24:	8105      	strh	r5, [r0, #8]
    3e26:	4002      	ands	r2, r0
    3e28:	0000      	movs	r0, r0
    3e2a:	0507      	lsls	r7, r0, #20
    3e2c:	0202      	lsls	r2, r0, #8
    3e2e:	0040      	lsls	r0, r0, #1
    3e30:	0900      	lsrs	r0, r0, #4
    3e32:	0104      	lsls	r4, r0, #4
    3e34:	0200      	lsls	r0, r0, #8
    3e36:	00ff      	lsls	r7, r7, #3
    3e38:	0000      	movs	r0, r0
    3e3a:	0507      	lsls	r7, r0, #20
    3e3c:	0203      	lsls	r3, r0, #8
    3e3e:	0040      	lsls	r0, r0, #1
    3e40:	0700      	lsls	r0, r0, #28
    3e42:	8405      	strh	r5, [r0, #32]
    3e44:	4002      	ands	r2, r0
    3e46:	0000      	movs	r0, r0
    3e48:	0112      	lsls	r2, r2, #4
    3e4a:	0110      	lsls	r0, r2, #4
    3e4c:	0000      	movs	r0, r0
    3e4e:	4000      	ands	r0, r0
    3e50:	2e8a      	cmp	r6, #138	; 0x8a
    3e52:	0003      	movs	r3, r0
    3e54:	0100      	lsls	r0, r0, #4
    3e56:	0201      	lsls	r1, r0, #8
    3e58:	0103      	lsls	r3, r0, #4
    3e5a:	be00      	bkpt	0x0000
    3e5c:	0e18      	lsrs	r0, r3, #24
    3e5e:	5010      	str	r0, [r2, r0]
    3e60:	0e50      	lsrs	r0, r2, #25
    3e62:	5010      	str	r0, [r2, r0]
    3e64:	3ceb      	subs	r4, #235	; 0xeb
    3e66:	4d90      	ldr	r5, [pc, #576]	; (0x40a8)
    3e68:	5753      	ldrsb	r3, [r2, r5]
    3e6a:	4e49      	ldr	r6, [pc, #292]	; (0x3f90)
    3e6c:	2e34      	cmp	r6, #52	; 0x34
    3e6e:	0031      	movs	r1, r6
    3e70:	0802      	lsrs	r2, r0, #32
    3e72:	0001      	movs	r1, r0
    3e74:	0002      	movs	r2, r0
    3e76:	0002      	movs	r2, r0
    3e78:	f800 0081 	strb.w	r0, [r0, r1]
    3e7c:	0001      	movs	r1, r0
    3e7e:	0001      	movs	r1, r0
    3e80:	0001      	movs	r1, r0
    3e82:	0000      	movs	r0, r0
    3e84:	ffff 0003 	vaddl.u<illegal width 64>	q8, d15, d3
    3e88:	0000      	movs	r0, r0
    3e8a:	0029      	movs	r1, r5
    3e8c:	0000      	movs	r0, r0
    3e8e:	5200      	strh	r0, [r0, r0]
    3e90:	4950      	ldr	r1, [pc, #320]	; (0x3fd4)
    3e92:	522d      	strh	r5, [r5, r0]
    3e94:	3250      	adds	r2, #80	; 0x50
    3e96:	2020      	movs	r0, #32
    3e98:	2020      	movs	r0, #32
    3e9a:	4146      	adcs	r6, r0
    3e9c:	3154      	adds	r1, #84	; 0x54
    3e9e:	2036      	movs	r0, #54	; 0x36
    3ea0:	2020      	movs	r0, #32
    3ea2:	feeb 0000 	cdp2	0, 14, cr0, cr11, cr0, {0}
    3ea6:	0100      	lsls	r0, r0, #4
    3ea8:	1000      	asrs	r0, r0, #32
    3eaa:	000c      	movs	r4, r1
    3eac:	0800      	lsrs	r0, r0, #32
    3eae:	0200      	lsls	r0, r0, #8
    3eb0:	8008      	strh	r0, [r1, #0]
    3eb2:	0804      	lsrs	r4, r0, #32
    3eb4:	0880      	lsrs	r0, r0, #2
    3eb6:	0000      	movs	r0, r0
    3eb8:	0001      	movs	r1, r0
    3eba:	2000      	movs	r0, #0
    3ebc:	0004      	movs	r4, r0
    3ebe:	0440      	lsls	r0, r0, #17
    3ec0:	8000      	strh	r0, [r0, #0]
    3ec2:	be00      	bkpt	0x0000
    3ec4:	001c      	movs	r4, r3
    3ec6:	0000      	movs	r0, r0
    3ec8:	2345      	movs	r3, #69	; 0x45
    3eca:	0000      	movs	r0, r0
    3ecc:	24b1      	movs	r4, #177	; 0xb1
    3ece:	0000      	movs	r0, r0
    3ed0:	1885      	adds	r5, r0, r2
    3ed2:	0000      	movs	r0, r0
    3ed4:	0ac9      	lsrs	r1, r1, #11
    3ed6:	0000      	movs	r0, r0
    3ed8:	18bd      	adds	r5, r7, r2
    3eda:	0000      	movs	r0, r0
    3edc:	17f5      	asrs	r5, r6, #31
    3ede:	0000      	movs	r0, r0
    3ee0:	3daf      	subs	r5, #175	; 0xaf
    3ee2:	0000      	movs	r0, r0
    3ee4:	3dbc      	subs	r5, #188	; 0xbc
    3ee6:	0000      	movs	r0, r0
    3ee8:	3dc9      	subs	r5, #201	; 0xc9
    3eea:	0000      	movs	r0, r0
    3eec:	0eb5      	lsrs	r5, r6, #26
    3eee:	5010      	str	r0, [r2, r0]
    3ef0:	4655      	mov	r5, sl
    3ef2:	2032      	movs	r0, #50	; 0x32
    3ef4:	6f42      	ldr	r2, [r0, #116]	; 0x74
    3ef6:	746f      	strb	r7, [r5, #17]
    3ef8:	6f6c      	ldr	r4, [r5, #116]	; 0x74
    3efa:	6461      	str	r1, [r4, #68]	; 0x44
    3efc:	7265      	strb	r5, [r4, #9]
    3efe:	7620      	strb	r0, [r4, #24]
    3f00:	2e33      	cmp	r6, #51	; 0x33
    3f02:	0a30      	lsrs	r0, r6, #8
    3f04:	6f4d      	ldr	r5, [r1, #116]	; 0x74
    3f06:	6564      	str	r4, [r4, #84]	; 0x54
    3f08:	3a6c      	subs	r2, #108	; 0x6c
    3f0a:	5220      	strh	r0, [r4, r0]
    3f0c:	7361      	strb	r1, [r4, #13]
    3f0e:	6270      	str	r0, [r6, #36]	; 0x24
    3f10:	7265      	strb	r5, [r4, #9]
    3f12:	7972      	ldrb	r2, [r6, #5]
    3f14:	5020      	str	r0, [r4, r0]
    3f16:	2069      	movs	r0, #105	; 0x69
    3f18:	5052      	str	r2, [r2, r1]
    3f1a:	0a32      	lsrs	r2, r6, #8
    3f1c:	6f42      	ldr	r2, [r0, #116]	; 0x74
    3f1e:	7261      	strb	r1, [r4, #9]
    3f20:	2d64      	cmp	r5, #100	; 0x64
    3f22:	4449      	add	r1, r9
    3f24:	203a      	movs	r0, #58	; 0x3a
    3f26:	5052      	str	r2, [r2, r1]
    3f28:	2d49      	cmp	r5, #73	; 0x49
    3f2a:	5052      	str	r2, [r2, r1]
    3f2c:	0a32      	lsrs	r2, r6, #8
    3f2e:	0304      	lsls	r4, r0, #12
    3f30:	0409      	lsls	r1, r1, #16
    3f32:	be00      	bkpt	0x0000
    3f34:	0e58      	lsrs	r0, r3, #25
    3f36:	5010      	str	r0, [r2, r0]
    3f38:	0e24      	lsrs	r4, r4, #24
    3f3a:	5010      	str	r0, [r2, r0]
    3f3c:	0000      	movs	r0, r0
    3f3e:	0202      	lsls	r2, r0, #8
    3f40:	0020      	movs	r0, r4
    3f42:	0000      	movs	r0, r0
    3f44:	5052      	str	r2, [r2, r1]
    3f46:	2049      	movs	r0, #73	; 0x49
    3f48:	01fc      	lsls	r4, r7, #7
    3f4a:	5052      	str	r2, [r2, r1]
    3f4c:	fb32 2008 	smlawb	r0, r2, r8, r2
    3f50:	06f9      	lsls	r1, r7, #27
    3f52:	fd33 0216 	ldc2	2, cr0, [r3, #-88]!	; 0xffffffa8
    3f56:	3c01      	subs	r4, #1
    3f58:	7468      	strb	r0, [r5, #17]
    3f5a:	6c6d      	ldr	r5, [r5, #68]	; 0x44
    3f5c:	3c3e      	subs	r4, #62	; 0x3e
    3f5e:	6568      	str	r0, [r5, #84]	; 0x54
    3f60:	6461      	str	r1, [r4, #68]	; 0x44
    3f62:	3c3e      	subs	r4, #62	; 0x3e
    3f64:	656d      	str	r5, [r5, #84]	; 0x54
    3f66:	6174      	str	r4, [r6, #20]
    3f68:	6820      	ldr	r0, [r4, #0]
    3f6a:	7474      	strb	r4, [r6, #17]
    3f6c:	2d70      	cmp	r5, #112	; 0x70
    3f6e:	7165      	strb	r5, [r4, #5]
    3f70:	6975      	ldr	r5, [r6, #20]
    3f72:	3d76      	subs	r5, #118	; 0x76
    3f74:	7222      	strb	r2, [r4, #8]
    3f76:	6665      	str	r5, [r4, #100]	; 0x64
    3f78:	6572      	str	r2, [r6, #84]	; 0x54
    3f7a:	6873      	ldr	r3, [r6, #4]
    3f7c:	2022      	movs	r0, #34	; 0x22
    3f7e:	6f63      	ldr	r3, [r4, #116]	; 0x74
    3f80:	746e      	strb	r6, [r5, #17]
    3f82:	6e65      	ldr	r5, [r4, #100]	; 0x64
    3f84:	3d74      	subs	r5, #116	; 0x74
    3f86:	3022      	adds	r0, #34	; 0x22
    3f88:	553b      	strb	r3, [r7, r4]
    3f8a:	4c52      	ldr	r4, [pc, #328]	; (0x40d4)
    3f8c:	273d      	movs	r7, #61	; 0x3d
    3f8e:	25fc      	movs	r5, #252	; 0xfc
